
GccApplication1.elf:     file format elf32-avr

Sections:
Idx Name          Size      VMA       LMA       File off  Algn
  0 .data         00000028  00800100  00000294  00000308  2**0
                  CONTENTS, ALLOC, LOAD, DATA
  1 .text         00000294  00000000  00000000  00000074  2**1
                  CONTENTS, ALLOC, LOAD, READONLY, CODE
  2 .comment      00000030  00000000  00000000  00000330  2**0
                  CONTENTS, READONLY
  3 .note.gnu.avr.deviceinfo 00000040  00000000  00000000  00000360  2**2
                  CONTENTS, READONLY
  4 .debug_aranges 000000e0  00000000  00000000  000003a0  2**0
                  CONTENTS, READONLY, DEBUGGING
  5 .debug_info   00001147  00000000  00000000  00000480  2**0
                  CONTENTS, READONLY, DEBUGGING
  6 .debug_abbrev 00000987  00000000  00000000  000015c7  2**0
                  CONTENTS, READONLY, DEBUGGING
  7 .debug_line   000006a2  00000000  00000000  00001f4e  2**0
                  CONTENTS, READONLY, DEBUGGING
  8 .debug_frame  000001b0  00000000  00000000  000025f0  2**2
                  CONTENTS, READONLY, DEBUGGING
  9 .debug_str    000004b1  00000000  00000000  000027a0  2**0
                  CONTENTS, READONLY, DEBUGGING
 10 .debug_loc    000006b4  00000000  00000000  00002c51  2**0
                  CONTENTS, READONLY, DEBUGGING
 11 .debug_ranges 000000a0  00000000  00000000  00003305  2**0
                  CONTENTS, READONLY, DEBUGGING

Disassembly of section .text:

00000000 <__vectors>:
   0:	0c 94 34 00 	jmp	0x68	; 0x68 <__ctors_end>
   4:	0c 94 51 00 	jmp	0xa2	; 0xa2 <__bad_interrupt>
   8:	0c 94 51 00 	jmp	0xa2	; 0xa2 <__bad_interrupt>
   c:	0c 94 51 00 	jmp	0xa2	; 0xa2 <__bad_interrupt>
  10:	0c 94 51 00 	jmp	0xa2	; 0xa2 <__bad_interrupt>
  14:	0c 94 51 00 	jmp	0xa2	; 0xa2 <__bad_interrupt>
  18:	0c 94 51 00 	jmp	0xa2	; 0xa2 <__bad_interrupt>
  1c:	0c 94 51 00 	jmp	0xa2	; 0xa2 <__bad_interrupt>
  20:	0c 94 51 00 	jmp	0xa2	; 0xa2 <__bad_interrupt>
  24:	0c 94 51 00 	jmp	0xa2	; 0xa2 <__bad_interrupt>
  28:	0c 94 51 00 	jmp	0xa2	; 0xa2 <__bad_interrupt>
  2c:	0c 94 51 00 	jmp	0xa2	; 0xa2 <__bad_interrupt>
  30:	0c 94 51 00 	jmp	0xa2	; 0xa2 <__bad_interrupt>
  34:	0c 94 51 00 	jmp	0xa2	; 0xa2 <__bad_interrupt>
  38:	0c 94 51 00 	jmp	0xa2	; 0xa2 <__bad_interrupt>
  3c:	0c 94 51 00 	jmp	0xa2	; 0xa2 <__bad_interrupt>
  40:	0c 94 51 00 	jmp	0xa2	; 0xa2 <__bad_interrupt>
  44:	0c 94 51 00 	jmp	0xa2	; 0xa2 <__bad_interrupt>
  48:	0c 94 51 00 	jmp	0xa2	; 0xa2 <__bad_interrupt>
  4c:	0c 94 51 00 	jmp	0xa2	; 0xa2 <__bad_interrupt>
  50:	0c 94 51 00 	jmp	0xa2	; 0xa2 <__bad_interrupt>
  54:	0c 94 51 00 	jmp	0xa2	; 0xa2 <__bad_interrupt>
  58:	0c 94 51 00 	jmp	0xa2	; 0xa2 <__bad_interrupt>
  5c:	0c 94 51 00 	jmp	0xa2	; 0xa2 <__bad_interrupt>
  60:	0c 94 51 00 	jmp	0xa2	; 0xa2 <__bad_interrupt>
  64:	0c 94 51 00 	jmp	0xa2	; 0xa2 <__bad_interrupt>

00000068 <__ctors_end>:
  68:	11 24       	eor	r1, r1
  6a:	1f be       	out	0x3f, r1	; 63
  6c:	cf ef       	ldi	r28, 0xFF	; 255
  6e:	d8 e0       	ldi	r29, 0x08	; 8
  70:	de bf       	out	0x3e, r29	; 62
  72:	cd bf       	out	0x3d, r28	; 61

00000074 <__do_copy_data>:
  74:	11 e0       	ldi	r17, 0x01	; 1
  76:	a0 e0       	ldi	r26, 0x00	; 0
  78:	b1 e0       	ldi	r27, 0x01	; 1
  7a:	e4 e9       	ldi	r30, 0x94	; 148
  7c:	f2 e0       	ldi	r31, 0x02	; 2
  7e:	02 c0       	rjmp	.+4      	; 0x84 <__do_copy_data+0x10>
  80:	05 90       	lpm	r0, Z+
  82:	0d 92       	st	X+, r0
  84:	a8 32       	cpi	r26, 0x28	; 40
  86:	b1 07       	cpc	r27, r17
  88:	d9 f7       	brne	.-10     	; 0x80 <__do_copy_data+0xc>

0000008a <__do_clear_bss>:
  8a:	21 e0       	ldi	r18, 0x01	; 1
  8c:	a8 e2       	ldi	r26, 0x28	; 40
  8e:	b1 e0       	ldi	r27, 0x01	; 1
  90:	01 c0       	rjmp	.+2      	; 0x94 <.do_clear_bss_start>

00000092 <.do_clear_bss_loop>:
  92:	1d 92       	st	X+, r1

00000094 <.do_clear_bss_start>:
  94:	a8 32       	cpi	r26, 0x28	; 40
  96:	b2 07       	cpc	r27, r18
  98:	e1 f7       	brne	.-8      	; 0x92 <.do_clear_bss_loop>
  9a:	0e 94 37 01 	call	0x26e	; 0x26e <main>
  9e:	0c 94 48 01 	jmp	0x290	; 0x290 <_exit>

000000a2 <__bad_interrupt>:
  a2:	0c 94 00 00 	jmp	0	; 0x0 <__vectors>

000000a6 <i2c_wait>:
	TWBR=32;
}

//ожидание завершени€ задани€
void i2c_wait(void){
	while (!(TWCR & (1<<TWINT)));
  a6:	80 91 bc 00 	lds	r24, 0x00BC	; 0x8000bc <__TEXT_REGION_LENGTH__+0x7f80bc>
  aa:	88 23       	and	r24, r24
  ac:	e4 f7       	brge	.-8      	; 0xa6 <i2c_wait>
}
  ae:	08 95       	ret

000000b0 <i2c_start>:

// условие старт
void i2c_start(void) {
	TWCR = (1<<TWINT)|(1<<TWSTA)|(1<<TWEN);
  b0:	84 ea       	ldi	r24, 0xA4	; 164
  b2:	80 93 bc 00 	sts	0x00BC, r24	; 0x8000bc <__TEXT_REGION_LENGTH__+0x7f80bc>
	i2c_wait();
  b6:	0e 94 53 00 	call	0xa6	; 0xa6 <i2c_wait>
  ba:	08 95       	ret

000000bc <i2c_stop>:
}

// условие стоп
void i2c_stop(void) {
	TWCR = (1<<TWINT)|(1<<TWSTO)|(1<<TWEN);
  bc:	84 e9       	ldi	r24, 0x94	; 148
  be:	80 93 bc 00 	sts	0x00BC, r24	; 0x8000bc <__TEXT_REGION_LENGTH__+0x7f80bc>
  c2:	08 95       	ret

000000c4 <i2c_write>:
}

// запись байта
void i2c_write(uint8_t byte) {
	TWDR = byte;
  c4:	80 93 bb 00 	sts	0x00BB, r24	; 0x8000bb <__TEXT_REGION_LENGTH__+0x7f80bb>
	TWCR = (1<<TWINT)|(1<<TWEN);
  c8:	84 e8       	ldi	r24, 0x84	; 132
  ca:	80 93 bc 00 	sts	0x00BC, r24	; 0x8000bc <__TEXT_REGION_LENGTH__+0x7f80bc>
	i2c_wait();
  ce:	0e 94 53 00 	call	0xa6	; 0xa6 <i2c_wait>
  d2:	08 95       	ret

000000d4 <write>:
#include "../main.h"

#define E		2
#define RS		0

void write(uint8_t n){
  d4:	cf 93       	push	r28
  d6:	c8 2f       	mov	r28, r24
	n|=(1<<E);
	pcf_write(n);
  d8:	84 60       	ori	r24, 0x04	; 4
  da:	0e 94 3a 01 	call	0x274	; 0x274 <pcf_write>
	n&=~(1<<E);
	pcf_write(n);
  de:	8c 2f       	mov	r24, r28
  e0:	8b 7f       	andi	r24, 0xFB	; 251
  e2:	0e 94 3a 01 	call	0x274	; 0x274 <pcf_write>
}
  e6:	cf 91       	pop	r28
  e8:	08 95       	ret

000000ea <send_byte>:


void send_byte(uint8_t byte, uint8_t tip){
  ea:	cf 93       	push	r28
  ec:	df 93       	push	r29
  ee:	c8 2f       	mov	r28, r24
	uint8_t data=0;
	if(tip) data|=(1<<RS); // если тип данные - на линии RS 1
  f0:	61 11       	cpse	r22, r1
  f2:	02 c0       	rjmp	.+4      	; 0xf8 <send_byte+0xe>
	pcf_write(n);
}


void send_byte(uint8_t byte, uint8_t tip){
	uint8_t data=0;
  f4:	d0 e0       	ldi	r29, 0x00	; 0
  f6:	01 c0       	rjmp	.+2      	; 0xfa <send_byte+0x10>
	if(tip) data|=(1<<RS); // если тип данные - на линии RS 1
  f8:	d1 e0       	ldi	r29, 0x01	; 1
	write(data|(byte&0xF0));// передача старшего полубайта
  fa:	8c 2f       	mov	r24, r28
  fc:	80 7f       	andi	r24, 0xF0	; 240
  fe:	8d 2b       	or	r24, r29
 100:	0e 94 6a 00 	call	0xd4	; 0xd4 <write>
	write(data|(byte<<4));// передача младшего полубайта
 104:	20 e1       	ldi	r18, 0x10	; 16
 106:	c2 9f       	mul	r28, r18
 108:	c0 01       	movw	r24, r0
 10a:	11 24       	eor	r1, r1
 10c:	8d 2b       	or	r24, r29
 10e:	0e 94 6a 00 	call	0xd4	; 0xd4 <write>
}
 112:	df 91       	pop	r29
 114:	cf 91       	pop	r28
 116:	08 95       	ret

00000118 <lcd_str>:
	// -----------маска всЄ----------------------------------------------
}


// вывод строки на индикацию
void lcd_str(char* str){
 118:	0f 93       	push	r16
 11a:	1f 93       	push	r17
 11c:	cf 93       	push	r28
 11e:	8c 01       	movw	r16, r24
	uint8_t n=0;// счетчик
 120:	c0 e0       	ldi	r28, 0x00	; 0
	while(str[n])// пока н-ный символ не 0 работает цикл
 122:	04 c0       	rjmp	.+8      	; 0x12c <lcd_str+0x14>
	{
		send_byte(str[n],1);// выводим н-ный символна индикацию
 124:	61 e0       	ldi	r22, 0x01	; 1
 126:	0e 94 75 00 	call	0xea	; 0xea <send_byte>
		n++;// мен€ем номер символа
 12a:	cf 5f       	subi	r28, 0xFF	; 255


// вывод строки на индикацию
void lcd_str(char* str){
	uint8_t n=0;// счетчик
	while(str[n])// пока н-ный символ не 0 работает цикл
 12c:	f8 01       	movw	r30, r16
 12e:	ec 0f       	add	r30, r28
 130:	f1 1d       	adc	r31, r1
 132:	80 81       	ld	r24, Z
 134:	81 11       	cpse	r24, r1
 136:	f6 cf       	rjmp	.-20     	; 0x124 <lcd_str+0xc>
	{
		send_byte(str[n],1);// выводим н-ный символна индикацию
		n++;// мен€ем номер символа
	}
}
 138:	cf 91       	pop	r28
 13a:	1f 91       	pop	r17
 13c:	0f 91       	pop	r16
 13e:	08 95       	ret

00000140 <lcd_pos>:

// смена активной €чейки видео пам€ти (позици€ курсора)
void lcd_pos(uint8_t line, uint8_t pos){
	uint8_t adress=(line*0x40+pos)|0x80;// вычисл€ем адрес и приводим значение в вид команды
 140:	90 e4       	ldi	r25, 0x40	; 64
 142:	89 9f       	mul	r24, r25
 144:	60 0d       	add	r22, r0
 146:	11 24       	eor	r1, r1
 148:	86 2f       	mov	r24, r22
	send_byte(adress,0);// отправка команды
 14a:	60 e0       	ldi	r22, 0x00	; 0
 14c:	80 68       	ori	r24, 0x80	; 128
 14e:	0e 94 75 00 	call	0xea	; 0xea <send_byte>
	#else
		//round up by default
		__ticks_dc = (uint32_t)(ceil(fabs(__tmp)));
	#endif

	__builtin_avr_delay_cycles(__ticks_dc);
 152:	80 e1       	ldi	r24, 0x10	; 16
 154:	8a 95       	dec	r24
 156:	f1 f7       	brne	.-4      	; 0x154 <lcd_pos+0x14>
 158:	00 c0       	rjmp	.+0      	; 0x15a <lcd_pos+0x1a>
 15a:	08 95       	ret

0000015c <mychar>:
	write(data|(byte&0xF0));// передача старшего полубайта
	write(data|(byte<<4));// передача младшего полубайта
}

// загрузка своих символов
void mychar(void){
 15c:	1f 93       	push	r17
 15e:	cf 93       	push	r28
 160:	df 93       	push	r29
 162:	cd b7       	in	r28, 0x3d	; 61
 164:	de b7       	in	r29, 0x3e	; 62
 166:	60 97       	sbiw	r28, 0x10	; 16
 168:	0f b6       	in	r0, 0x3f	; 63
 16a:	f8 94       	cli
 16c:	de bf       	out	0x3e, r29	; 62
 16e:	0f be       	out	0x3f, r0	; 63
 170:	cd bf       	out	0x3d, r28	; 61
	
	// массив с двум€ символами
	uint8_t simvol[16]={
 172:	80 e1       	ldi	r24, 0x10	; 16
 174:	e0 e0       	ldi	r30, 0x00	; 0
 176:	f1 e0       	ldi	r31, 0x01	; 1
 178:	de 01       	movw	r26, r28
 17a:	11 96       	adiw	r26, 0x01	; 1
 17c:	01 90       	ld	r0, Z+
 17e:	0d 92       	st	X+, r0
 180:	8a 95       	dec	r24
 182:	e1 f7       	brne	.-8      	; 0x17c <mychar+0x20>
		0x04,
		0x0A,
		0x0A,
		0x00
	};
	send_byte(64,0); // перейти в €чейку 0 CGRAM пам€ти
 184:	60 e0       	ldi	r22, 0x00	; 0
 186:	80 e4       	ldi	r24, 0x40	; 64
 188:	0e 94 75 00 	call	0xea	; 0xea <send_byte>
	
	// загрузить массив с символами в пам€ть CGRAM
	for (uint8_t i=0; i<16; i++)
 18c:	10 e0       	ldi	r17, 0x00	; 0
 18e:	0b c0       	rjmp	.+22     	; 0x1a6 <mychar+0x4a>
	{
		send_byte(simvol[i], 1);
 190:	e1 e0       	ldi	r30, 0x01	; 1
 192:	f0 e0       	ldi	r31, 0x00	; 0
 194:	ec 0f       	add	r30, r28
 196:	fd 1f       	adc	r31, r29
 198:	e1 0f       	add	r30, r17
 19a:	f1 1d       	adc	r31, r1
 19c:	61 e0       	ldi	r22, 0x01	; 1
 19e:	80 81       	ld	r24, Z
 1a0:	0e 94 75 00 	call	0xea	; 0xea <send_byte>
		0x00
	};
	send_byte(64,0); // перейти в €чейку 0 CGRAM пам€ти
	
	// загрузить массив с символами в пам€ть CGRAM
	for (uint8_t i=0; i<16; i++)
 1a4:	1f 5f       	subi	r17, 0xFF	; 255
 1a6:	10 31       	cpi	r17, 0x10	; 16
 1a8:	98 f3       	brcs	.-26     	; 0x190 <mychar+0x34>
	{
		send_byte(simvol[i], 1);
	}
	
	// перейти обратно в видео пам€ть
	lcd_pos(0,0);
 1aa:	60 e0       	ldi	r22, 0x00	; 0
 1ac:	80 e0       	ldi	r24, 0x00	; 0
 1ae:	0e 94 a0 00 	call	0x140	; 0x140 <lcd_pos>
}
 1b2:	60 96       	adiw	r28, 0x10	; 16
 1b4:	0f b6       	in	r0, 0x3f	; 63
 1b6:	f8 94       	cli
 1b8:	de bf       	out	0x3e, r29	; 62
 1ba:	0f be       	out	0x3f, r0	; 63
 1bc:	cd bf       	out	0x3d, r28	; 61
 1be:	df 91       	pop	r29
 1c0:	cf 91       	pop	r28
 1c2:	1f 91       	pop	r17
 1c4:	08 95       	ret

000001c6 <lcd_ini>:
	#else
		//round up by default
		__ticks_dc = (uint32_t)(ceil(fabs(__tmp)));
	#endif

	__builtin_avr_delay_cycles(__ticks_dc);
 1c6:	8f e0       	ldi	r24, 0x0F	; 15
 1c8:	97 e2       	ldi	r25, 0x27	; 39
 1ca:	01 97       	sbiw	r24, 0x01	; 1
 1cc:	f1 f7       	brne	.-4      	; 0x1ca <lcd_ini+0x4>
 1ce:	00 c0       	rjmp	.+0      	; 0x1d0 <lcd_ini+0xa>
 1d0:	00 00       	nop
	
	//----------- магические действи€ инциализации----------------
	
	_delay_ms(40);// ждем 40 мс стабилизации питани€

	write(3<<4);
 1d2:	80 e3       	ldi	r24, 0x30	; 48
 1d4:	0e 94 6a 00 	call	0xd4	; 0xd4 <write>
 1d8:	81 ee       	ldi	r24, 0xE1	; 225
 1da:	94 e0       	ldi	r25, 0x04	; 4
 1dc:	01 97       	sbiw	r24, 0x01	; 1
 1de:	f1 f7       	brne	.-4      	; 0x1dc <lcd_ini+0x16>
 1e0:	00 c0       	rjmp	.+0      	; 0x1e2 <lcd_ini+0x1c>
 1e2:	00 00       	nop
	_delay_ms(5);
	write(3<<4);
 1e4:	80 e3       	ldi	r24, 0x30	; 48
 1e6:	0e 94 6a 00 	call	0xd4	; 0xd4 <write>
	#else
		//round up by default
		__ticks_dc = (uint32_t)(ceil(fabs(__tmp)));
	#endif

	__builtin_avr_delay_cycles(__ticks_dc);
 1ea:	92 e3       	ldi	r25, 0x32	; 50
 1ec:	9a 95       	dec	r25
 1ee:	f1 f7       	brne	.-4      	; 0x1ec <lcd_ini+0x26>
	_delay_us(150);
	write(3<<4);
 1f0:	80 e3       	ldi	r24, 0x30	; 48
 1f2:	0e 94 6a 00 	call	0xd4	; 0xd4 <write>
 1f6:	80 e1       	ldi	r24, 0x10	; 16
 1f8:	8a 95       	dec	r24
 1fa:	f1 f7       	brne	.-4      	; 0x1f8 <lcd_ini+0x32>
 1fc:	00 c0       	rjmp	.+0      	; 0x1fe <lcd_ini+0x38>
	_delay_us(50);// минимальное врем€ выполнени€ команды
	write(2<<4);
 1fe:	80 e2       	ldi	r24, 0x20	; 32
 200:	0e 94 6a 00 	call	0xd4	; 0xd4 <write>
 204:	90 e1       	ldi	r25, 0x10	; 16
 206:	9a 95       	dec	r25
 208:	f1 f7       	brne	.-4      	; 0x206 <lcd_ini+0x40>
 20a:	00 c0       	rjmp	.+0      	; 0x20c <lcd_ini+0x46>
	
	// ---------------------- маги€ всЄ------------------------------
	
	// -----------команды инициализации--------------------
	
	send_byte(40,0);// команда Function Set 001_DL_N_F_X_X
 20c:	60 e0       	ldi	r22, 0x00	; 0
 20e:	88 e2       	ldi	r24, 0x28	; 40
 210:	0e 94 75 00 	call	0xea	; 0xea <send_byte>
 214:	80 e1       	ldi	r24, 0x10	; 16
 216:	8a 95       	dec	r24
 218:	f1 f7       	brne	.-4      	; 0x216 <lcd_ini+0x50>
 21a:	00 c0       	rjmp	.+0      	; 0x21c <lcd_ini+0x56>
	// DL 0/1 -4bit/8bit
	// N 0/1 -1/2 строки
	// F 0/1 -5x7/5x11 шрифт
	_delay_us(50);

	send_byte(12,0);// команда DISPLAY SWITCH 00001_D_C_B
 21c:	60 e0       	ldi	r22, 0x00	; 0
 21e:	8c e0       	ldi	r24, 0x0C	; 12
 220:	0e 94 75 00 	call	0xea	; 0xea <send_byte>
 224:	90 e1       	ldi	r25, 0x10	; 16
 226:	9a 95       	dec	r25
 228:	f1 f7       	brne	.-4      	; 0x226 <lcd_ini+0x60>
 22a:	00 c0       	rjmp	.+0      	; 0x22c <lcd_ini+0x66>
	// C 0/1 - off/on cursor
	// B 0/1 - off/on blink
	
	_delay_us(50);
	
	send_byte(1,0);// команда очистка диспле€ (без параметров)
 22c:	60 e0       	ldi	r22, 0x00	; 0
 22e:	81 e0       	ldi	r24, 0x01	; 1
 230:	0e 94 75 00 	call	0xea	; 0xea <send_byte>
	#else
		//round up by default
		__ticks_dc = (uint32_t)(ceil(fabs(__tmp)));
	#endif

	__builtin_avr_delay_cycles(__ticks_dc);
 234:	83 ef       	ldi	r24, 0xF3	; 243
 236:	91 e0       	ldi	r25, 0x01	; 1
 238:	01 97       	sbiw	r24, 0x01	; 1
 23a:	f1 f7       	brne	.-4      	; 0x238 <lcd_ini+0x72>
 23c:	00 c0       	rjmp	.+0      	; 0x23e <lcd_ini+0x78>
 23e:	00 00       	nop
	_delay_ms(2);
	
	send_byte(6,0);// команда INPUT SET 000001_ID_S
 240:	60 e0       	ldi	r22, 0x00	; 0
 242:	86 e0       	ldi	r24, 0x06	; 6
 244:	0e 94 75 00 	call	0xea	; 0xea <send_byte>
	#else
		//round up by default
		__ticks_dc = (uint32_t)(ceil(fabs(__tmp)));
	#endif

	__builtin_avr_delay_cycles(__ticks_dc);
 248:	90 e1       	ldi	r25, 0x10	; 16
 24a:	9a 95       	dec	r25
 24c:	f1 f7       	brne	.-4      	; 0x24a <lcd_ini+0x84>
 24e:	00 c0       	rjmp	.+0      	; 0x250 <lcd_ini+0x8a>
	_delay_us(50);
	
	//--------------- команды всЄ ------------------------------------
	
	
	mychar();// загрузка своих символов
 250:	0e 94 ae 00 	call	0x15c	; 0x15c <mychar>

	//---------------маска индикации ----------------------------------
	lcd_str("count=");
 254:	80 e1       	ldi	r24, 0x10	; 16
 256:	91 e0       	ldi	r25, 0x01	; 1
 258:	0e 94 8c 00 	call	0x118	; 0x118 <lcd_str>
	lcd_pos(1,2);
 25c:	62 e0       	ldi	r22, 0x02	; 2
 25e:	81 e0       	ldi	r24, 0x01	; 1
 260:	0e 94 a0 00 	call	0x140	; 0x140 <lcd_pos>
	lcd_str("HOLa Amigos!");
 264:	87 e1       	ldi	r24, 0x17	; 23
 266:	91 e0       	ldi	r25, 0x01	; 1
 268:	0e 94 8c 00 	call	0x118	; 0x118 <lcd_str>
 26c:	08 95       	ret

0000026e <main>:
#include "main.h"

int main(void)
{
	lcd_ini();
 26e:	0e 94 e3 00 	call	0x1c6	; 0x1c6 <lcd_ini>
 272:	ff cf       	rjmp	.-2      	; 0x272 <main+0x4>

00000274 <pcf_write>:
#include "../main.h"

// ADDRESS PCF8574 - 0b01000000 или 0b01110000

void pcf_write(uint8_t byte){
 274:	cf 93       	push	r28
 276:	c8 2f       	mov	r28, r24
	i2c_start();
 278:	0e 94 58 00 	call	0xb0	; 0xb0 <i2c_start>
	i2c_write(0x27);// адрес на запись
 27c:	87 e2       	ldi	r24, 0x27	; 39
 27e:	0e 94 62 00 	call	0xc4	; 0xc4 <i2c_write>
	i2c_write(byte);
 282:	8c 2f       	mov	r24, r28
 284:	0e 94 62 00 	call	0xc4	; 0xc4 <i2c_write>
	i2c_stop();
 288:	0e 94 5e 00 	call	0xbc	; 0xbc <i2c_stop>
 28c:	cf 91       	pop	r28
 28e:	08 95       	ret

00000290 <_exit>:
 290:	f8 94       	cli

00000292 <__stop_program>:
 292:	ff cf       	rjmp	.-2      	; 0x292 <__stop_program>
