
GccApplication1.elf:     file format elf32-avr

Sections:
Idx Name          Size      VMA       LMA       File off  Algn
  0 .text         000008fc  00000000  00000000  00000094  2**1
                  CONTENTS, ALLOC, LOAD, READONLY, CODE
  1 .data         0000000e  00800060  000008fc  00000990  2**0
                  CONTENTS, ALLOC, LOAD, DATA
  2 .bss          00000009  0080006e  0080006e  0000099e  2**0
                  ALLOC
  3 .comment      00000030  00000000  00000000  0000099e  2**0
                  CONTENTS, READONLY
  4 .note.gnu.avr.deviceinfo 0000003c  00000000  00000000  000009d0  2**2
                  CONTENTS, READONLY
  5 .debug_aranges 000000f0  00000000  00000000  00000a0c  2**0
                  CONTENTS, READONLY, DEBUGGING
  6 .debug_info   0000262d  00000000  00000000  00000afc  2**0
                  CONTENTS, READONLY, DEBUGGING
  7 .debug_abbrev 000008dd  00000000  00000000  00003129  2**0
                  CONTENTS, READONLY, DEBUGGING
  8 .debug_line   00000ffd  00000000  00000000  00003a06  2**0
                  CONTENTS, READONLY, DEBUGGING
  9 .debug_frame  00000288  00000000  00000000  00004a04  2**2
                  CONTENTS, READONLY, DEBUGGING
 10 .debug_str    00000569  00000000  00000000  00004c8c  2**0
                  CONTENTS, READONLY, DEBUGGING
 11 .debug_loc    00001d3f  00000000  00000000  000051f5  2**0
                  CONTENTS, READONLY, DEBUGGING
 12 .debug_ranges 00000168  00000000  00000000  00006f34  2**0
                  CONTENTS, READONLY, DEBUGGING

Disassembly of section .text:

00000000 <__vectors>:
   0:	12 c0       	rjmp	.+36     	; 0x26 <__ctors_end>
   2:	44 c1       	rjmp	.+648    	; 0x28c <__vector_1>
   4:	70 c1       	rjmp	.+736    	; 0x2e6 <__vector_2>
   6:	2a c0       	rjmp	.+84     	; 0x5c <__bad_interrupt>
   8:	29 c0       	rjmp	.+82     	; 0x5c <__bad_interrupt>
   a:	28 c0       	rjmp	.+80     	; 0x5c <__bad_interrupt>
   c:	27 c0       	rjmp	.+78     	; 0x5c <__bad_interrupt>
   e:	26 c0       	rjmp	.+76     	; 0x5c <__bad_interrupt>
  10:	e5 c0       	rjmp	.+458    	; 0x1dc <__vector_8>
  12:	24 c0       	rjmp	.+72     	; 0x5c <__bad_interrupt>
  14:	23 c0       	rjmp	.+70     	; 0x5c <__bad_interrupt>
  16:	22 c0       	rjmp	.+68     	; 0x5c <__bad_interrupt>
  18:	21 c0       	rjmp	.+66     	; 0x5c <__bad_interrupt>
  1a:	20 c0       	rjmp	.+64     	; 0x5c <__bad_interrupt>
  1c:	1f c0       	rjmp	.+62     	; 0x5c <__bad_interrupt>
  1e:	1e c0       	rjmp	.+60     	; 0x5c <__bad_interrupt>
  20:	1d c0       	rjmp	.+58     	; 0x5c <__bad_interrupt>
  22:	1c c0       	rjmp	.+56     	; 0x5c <__bad_interrupt>
  24:	1b c0       	rjmp	.+54     	; 0x5c <__bad_interrupt>

00000026 <__ctors_end>:
  26:	11 24       	eor	r1, r1
  28:	1f be       	out	0x3f, r1	; 63
  2a:	cf e5       	ldi	r28, 0x5F	; 95
  2c:	d4 e0       	ldi	r29, 0x04	; 4
  2e:	de bf       	out	0x3e, r29	; 62
  30:	cd bf       	out	0x3d, r28	; 61

00000032 <__do_copy_data>:
  32:	10 e0       	ldi	r17, 0x00	; 0
  34:	a0 e6       	ldi	r26, 0x60	; 96
  36:	b0 e0       	ldi	r27, 0x00	; 0
  38:	ec ef       	ldi	r30, 0xFC	; 252
  3a:	f8 e0       	ldi	r31, 0x08	; 8
  3c:	02 c0       	rjmp	.+4      	; 0x42 <__SREG__+0x3>
  3e:	05 90       	lpm	r0, Z+
  40:	0d 92       	st	X+, r0
  42:	ae 36       	cpi	r26, 0x6E	; 110
  44:	b1 07       	cpc	r27, r17
  46:	d9 f7       	brne	.-10     	; 0x3e <__SP_H__>

00000048 <__do_clear_bss>:
  48:	20 e0       	ldi	r18, 0x00	; 0
  4a:	ae e6       	ldi	r26, 0x6E	; 110
  4c:	b0 e0       	ldi	r27, 0x00	; 0
  4e:	01 c0       	rjmp	.+2      	; 0x52 <.do_clear_bss_start>

00000050 <.do_clear_bss_loop>:
  50:	1d 92       	st	X+, r1

00000052 <.do_clear_bss_start>:
  52:	a7 37       	cpi	r26, 0x77	; 119
  54:	b2 07       	cpc	r27, r18
  56:	e1 f7       	brne	.-8      	; 0x50 <.do_clear_bss_loop>
  58:	50 d1       	rcall	.+672    	; 0x2fa <main>
  5a:	4e c4       	rjmp	.+2204   	; 0x8f8 <_exit>

0000005c <__bad_interrupt>:
  5c:	d1 cf       	rjmp	.-94     	; 0x0 <__vectors>

0000005e <select_display_digit>:
	0b11101111
};

uint8_t select_display_digit(uint8_t digit)
{
	if (digit >= 0 && digit < 10)
  5e:	8a 30       	cpi	r24, 0x0A	; 10
  60:	30 f4       	brcc	.+12     	; 0x6e <select_display_digit+0x10>
	{
		return display_digit[digit];
  62:	e8 2f       	mov	r30, r24
  64:	f0 e0       	ldi	r31, 0x00	; 0
  66:	e0 5a       	subi	r30, 0xA0	; 160
  68:	ff 4f       	sbci	r31, 0xFF	; 255
  6a:	80 81       	ld	r24, Z
  6c:	08 95       	ret
	}
	else
	{
		return TM1637_SPAT_BLANK;
  6e:	80 e0       	ldi	r24, 0x00	; 0
	}
}
  70:	08 95       	ret

00000072 <wakeup_display>:

void wakeup_display()
{
	TM1637_turnOnAndSetBrightness(BRIGHTNES);
  72:	81 e0       	ldi	r24, 0x01	; 1
  74:	2e d2       	rcall	.+1116   	; 0x4d2 <TM1637_turnOnAndSetBrightness>
  76:	08 95       	ret

00000078 <print_time_on_display>:
}

void print_time_on_display()
{
  78:	ff 92       	push	r15
  7a:	0f 93       	push	r16
  7c:	1f 93       	push	r17
  7e:	cf 93       	push	r28
  80:	df 93       	push	r29
  82:	cd b7       	in	r28, 0x3d	; 61
  84:	de b7       	in	r29, 0x3e	; 62
  86:	28 97       	sbiw	r28, 0x08	; 8
  88:	0f b6       	in	r0, 0x3f	; 63
  8a:	f8 94       	cli
  8c:	de bf       	out	0x3e, r29	; 62
  8e:	0f be       	out	0x3f, r0	; 63
  90:	cd bf       	out	0x3d, r28	; 61
	uint8_t d_time[] =
	{
		get_hour() / DIVIDER,
  92:	39 d0       	rcall	.+114    	; 0x106 <get_hour>
  94:	0a e0       	ldi	r16, 0x0A	; 10
  96:	10 e0       	ldi	r17, 0x00	; 0
  98:	b8 01       	movw	r22, r16
  9a:	1b d4       	rcall	.+2102   	; 0x8d2 <__divmodhi4>
	TM1637_turnOnAndSetBrightness(BRIGHTNES);
}

void print_time_on_display()
{
	uint8_t d_time[] =
  9c:	69 83       	std	Y+1, r22	; 0x01
	{
		get_hour() / DIVIDER,
		get_hour() % DIVIDER,
  9e:	33 d0       	rcall	.+102    	; 0x106 <get_hour>
  a0:	b8 01       	movw	r22, r16
  a2:	17 d4       	rcall	.+2094   	; 0x8d2 <__divmodhi4>
	TM1637_turnOnAndSetBrightness(BRIGHTNES);
}

void print_time_on_display()
{
	uint8_t d_time[] =
  a4:	8a 83       	std	Y+2, r24	; 0x02
	{
		get_hour() / DIVIDER,
		get_hour() % DIVIDER,
		get_min() / DIVIDER,
  a6:	34 d0       	rcall	.+104    	; 0x110 <get_min>
  a8:	b8 01       	movw	r22, r16
  aa:	13 d4       	rcall	.+2086   	; 0x8d2 <__divmodhi4>
	TM1637_turnOnAndSetBrightness(BRIGHTNES);
}

void print_time_on_display()
{
	uint8_t d_time[] =
  ac:	6b 83       	std	Y+3, r22	; 0x03
	{
		get_hour() / DIVIDER,
		get_hour() % DIVIDER,
		get_min() / DIVIDER,
		get_min() % DIVIDER
  ae:	30 d0       	rcall	.+96     	; 0x110 <get_min>
  b0:	b8 01       	movw	r22, r16
  b2:	0f d4       	rcall	.+2078   	; 0x8d2 <__divmodhi4>
	TM1637_turnOnAndSetBrightness(BRIGHTNES);
}

void print_time_on_display()
{
	uint8_t d_time[] =
  b4:	8c 83       	std	Y+4, r24	; 0x04
		get_hour() % DIVIDER,
		get_min() / DIVIDER,
		get_min() % DIVIDER
	};
	uint8_t out_time[TM1637_DIGITS_COUNT];
	for(uint8_t i = 0; i < TM1637_DIGITS_COUNT; i++)
  b6:	f1 2c       	mov	r15, r1
  b8:	12 c0       	rjmp	.+36     	; 0xde <print_time_on_display+0x66>
	{
		out_time[i] = select_display_digit(d_time[i]);
  ba:	0f 2d       	mov	r16, r15
  bc:	10 e0       	ldi	r17, 0x00	; 0
  be:	e1 e0       	ldi	r30, 0x01	; 1
  c0:	f0 e0       	ldi	r31, 0x00	; 0
  c2:	ec 0f       	add	r30, r28
  c4:	fd 1f       	adc	r31, r29
  c6:	e0 0f       	add	r30, r16
  c8:	f1 1f       	adc	r31, r17
  ca:	80 81       	ld	r24, Z
  cc:	c8 df       	rcall	.-112    	; 0x5e <select_display_digit>
  ce:	e5 e0       	ldi	r30, 0x05	; 5
  d0:	f0 e0       	ldi	r31, 0x00	; 0
  d2:	ec 0f       	add	r30, r28
  d4:	fd 1f       	adc	r31, r29
  d6:	e0 0f       	add	r30, r16
  d8:	f1 1f       	adc	r31, r17
  da:	80 83       	st	Z, r24
		get_hour() % DIVIDER,
		get_min() / DIVIDER,
		get_min() % DIVIDER
	};
	uint8_t out_time[TM1637_DIGITS_COUNT];
	for(uint8_t i = 0; i < TM1637_DIGITS_COUNT; i++)
  dc:	f3 94       	inc	r15
  de:	83 e0       	ldi	r24, 0x03	; 3
  e0:	8f 15       	cp	r24, r15
  e2:	58 f7       	brcc	.-42     	; 0xba <print_time_on_display+0x42>
	{
		out_time[i] = select_display_digit(d_time[i]);
	}
	TM1637_setSegments(out_time, TM1637_DIGITS_COUNT, START_POS);
  e4:	40 e0       	ldi	r20, 0x00	; 0
  e6:	64 e0       	ldi	r22, 0x04	; 4
  e8:	ce 01       	movw	r24, r28
  ea:	05 96       	adiw	r24, 0x05	; 5
  ec:	59 d2       	rcall	.+1202   	; 0x5a0 <TM1637_setSegments>
  ee:	28 96       	adiw	r28, 0x08	; 8
  f0:	0f b6       	in	r0, 0x3f	; 63
  f2:	f8 94       	cli
  f4:	de bf       	out	0x3e, r29	; 62
  f6:	0f be       	out	0x3f, r0	; 63
  f8:	cd bf       	out	0x3d, r28	; 61
  fa:	df 91       	pop	r29
  fc:	cf 91       	pop	r28
  fe:	1f 91       	pop	r17
 100:	0f 91       	pop	r16
 102:	ff 90       	pop	r15
 104:	08 95       	ret

00000106 <get_hour>:
double interval = 0;

int get_hour()
{
	return hour;
}
 106:	80 91 6c 00 	lds	r24, 0x006C	; 0x80006c <hour>
 10a:	90 91 6d 00 	lds	r25, 0x006D	; 0x80006d <hour+0x1>
 10e:	08 95       	ret

00000110 <get_min>:

int get_min()
{
	return minutes;
}
 110:	80 91 6a 00 	lds	r24, 0x006A	; 0x80006a <minutes>
 114:	90 91 6b 00 	lds	r25, 0x006B	; 0x80006b <minutes+0x1>
 118:	08 95       	ret

0000011a <control_time>:

void control_time()
{
	if (seconds >= 58.8)
 11a:	60 91 72 00 	lds	r22, 0x0072	; 0x800072 <seconds>
 11e:	70 91 73 00 	lds	r23, 0x0073	; 0x800073 <seconds+0x1>
 122:	80 91 74 00 	lds	r24, 0x0074	; 0x800074 <seconds+0x2>
 126:	90 91 75 00 	lds	r25, 0x0075	; 0x800075 <seconds+0x3>
 12a:	23 e3       	ldi	r18, 0x33	; 51
 12c:	33 e3       	ldi	r19, 0x33	; 51
 12e:	4b e6       	ldi	r20, 0x6B	; 107
 130:	52 e4       	ldi	r21, 0x42	; 66
 132:	93 d3       	rcall	.+1830   	; 0x85a <__gesf2>
 134:	88 23       	and	r24, r24
 136:	8c f0       	brlt	.+34     	; 0x15a <control_time+0x40>
	{
		minutes++;
 138:	80 91 6a 00 	lds	r24, 0x006A	; 0x80006a <minutes>
 13c:	90 91 6b 00 	lds	r25, 0x006B	; 0x80006b <minutes+0x1>
 140:	01 96       	adiw	r24, 0x01	; 1
 142:	90 93 6b 00 	sts	0x006B, r25	; 0x80006b <minutes+0x1>
 146:	80 93 6a 00 	sts	0x006A, r24	; 0x80006a <minutes>
		seconds = 0;
 14a:	10 92 72 00 	sts	0x0072, r1	; 0x800072 <seconds>
 14e:	10 92 73 00 	sts	0x0073, r1	; 0x800073 <seconds+0x1>
 152:	10 92 74 00 	sts	0x0074, r1	; 0x800074 <seconds+0x2>
 156:	10 92 75 00 	sts	0x0075, r1	; 0x800075 <seconds+0x3>
	}
	if (minutes >= 60)
 15a:	80 91 6a 00 	lds	r24, 0x006A	; 0x80006a <minutes>
 15e:	90 91 6b 00 	lds	r25, 0x006B	; 0x80006b <minutes+0x1>
 162:	cc 97       	sbiw	r24, 0x3c	; 60
 164:	6c f0       	brlt	.+26     	; 0x180 <control_time+0x66>
	{
		hour++;
 166:	80 91 6c 00 	lds	r24, 0x006C	; 0x80006c <hour>
 16a:	90 91 6d 00 	lds	r25, 0x006D	; 0x80006d <hour+0x1>
 16e:	01 96       	adiw	r24, 0x01	; 1
 170:	90 93 6d 00 	sts	0x006D, r25	; 0x80006d <hour+0x1>
 174:	80 93 6c 00 	sts	0x006C, r24	; 0x80006c <hour>
		minutes = 0;
 178:	10 92 6b 00 	sts	0x006B, r1	; 0x80006b <minutes+0x1>
 17c:	10 92 6a 00 	sts	0x006A, r1	; 0x80006a <minutes>
	}
	if (hour == 23 && minutes >= 60)
 180:	80 91 6c 00 	lds	r24, 0x006C	; 0x80006c <hour>
 184:	90 91 6d 00 	lds	r25, 0x006D	; 0x80006d <hour+0x1>
 188:	47 97       	sbiw	r24, 0x17	; 23
 18a:	b1 f4       	brne	.+44     	; 0x1b8 <control_time+0x9e>
 18c:	80 91 6a 00 	lds	r24, 0x006A	; 0x80006a <minutes>
 190:	90 91 6b 00 	lds	r25, 0x006B	; 0x80006b <minutes+0x1>
 194:	cc 97       	sbiw	r24, 0x3c	; 60
 196:	84 f0       	brlt	.+32     	; 0x1b8 <control_time+0x9e>
	{
		hour = 0;
 198:	10 92 6d 00 	sts	0x006D, r1	; 0x80006d <hour+0x1>
 19c:	10 92 6c 00 	sts	0x006C, r1	; 0x80006c <hour>
		minutes = 0;
 1a0:	10 92 6b 00 	sts	0x006B, r1	; 0x80006b <minutes+0x1>
 1a4:	10 92 6a 00 	sts	0x006A, r1	; 0x80006a <minutes>
		seconds = 0;
 1a8:	10 92 72 00 	sts	0x0072, r1	; 0x800072 <seconds>
 1ac:	10 92 73 00 	sts	0x0073, r1	; 0x800073 <seconds+0x1>
 1b0:	10 92 74 00 	sts	0x0074, r1	; 0x800074 <seconds+0x2>
 1b4:	10 92 75 00 	sts	0x0075, r1	; 0x800075 <seconds+0x3>
 1b8:	08 95       	ret

000001ba <sleep_mode>:
	}
}

void sleep_mode()
{
	if (interval >= 10)
 1ba:	60 91 6e 00 	lds	r22, 0x006E	; 0x80006e <__data_end>
 1be:	70 91 6f 00 	lds	r23, 0x006F	; 0x80006f <__data_end+0x1>
 1c2:	80 91 70 00 	lds	r24, 0x0070	; 0x800070 <__data_end+0x2>
 1c6:	90 91 71 00 	lds	r25, 0x0071	; 0x800071 <__data_end+0x3>
 1ca:	20 e0       	ldi	r18, 0x00	; 0
 1cc:	30 e0       	ldi	r19, 0x00	; 0
 1ce:	40 e2       	ldi	r20, 0x20	; 32
 1d0:	51 e4       	ldi	r21, 0x41	; 65
 1d2:	43 d3       	rcall	.+1670   	; 0x85a <__gesf2>
 1d4:	88 23       	and	r24, r24
 1d6:	0c f0       	brlt	.+2      	; 0x1da <sleep_mode+0x20>
	{	
		TM1637_turnOff();
 1d8:	14 d1       	rcall	.+552    	; 0x402 <TM1637_turnOff>
 1da:	08 95       	ret

000001dc <__vector_8>:
	}
}

ISR(TIMER1_OVF_vect)
{
 1dc:	1f 92       	push	r1
 1de:	0f 92       	push	r0
 1e0:	0f b6       	in	r0, 0x3f	; 63
 1e2:	0f 92       	push	r0
 1e4:	11 24       	eor	r1, r1
 1e6:	2f 93       	push	r18
 1e8:	3f 93       	push	r19
 1ea:	4f 93       	push	r20
 1ec:	5f 93       	push	r21
 1ee:	6f 93       	push	r22
 1f0:	7f 93       	push	r23
 1f2:	8f 93       	push	r24
 1f4:	9f 93       	push	r25
 1f6:	af 93       	push	r26
 1f8:	bf 93       	push	r27
 1fa:	ef 93       	push	r30
 1fc:	ff 93       	push	r31
	TCCR1B &= ~(1 << CS12);
 1fe:	8e b5       	in	r24, 0x2e	; 46
 200:	8b 7f       	andi	r24, 0xFB	; 251
 202:	8e bd       	out	0x2e, r24	; 46
	TCCR1B |= (1 << CS12);
 204:	8e b5       	in	r24, 0x2e	; 46
 206:	84 60       	ori	r24, 0x04	; 4
 208:	8e bd       	out	0x2e, r24	; 46
	PORTB ^= (1 << PB1);
 20a:	98 b3       	in	r25, 0x18	; 24
 20c:	82 e0       	ldi	r24, 0x02	; 2
 20e:	89 27       	eor	r24, r25
 210:	88 bb       	out	0x18, r24	; 24
	seconds += 2.1;
 212:	26 e6       	ldi	r18, 0x66	; 102
 214:	36 e6       	ldi	r19, 0x66	; 102
 216:	46 e0       	ldi	r20, 0x06	; 6
 218:	50 e4       	ldi	r21, 0x40	; 64
 21a:	60 91 72 00 	lds	r22, 0x0072	; 0x800072 <seconds>
 21e:	70 91 73 00 	lds	r23, 0x0073	; 0x800073 <seconds+0x1>
 222:	80 91 74 00 	lds	r24, 0x0074	; 0x800074 <seconds+0x2>
 226:	90 91 75 00 	lds	r25, 0x0075	; 0x800075 <seconds+0x3>
 22a:	62 d2       	rcall	.+1220   	; 0x6f0 <__addsf3>
 22c:	60 93 72 00 	sts	0x0072, r22	; 0x800072 <seconds>
 230:	70 93 73 00 	sts	0x0073, r23	; 0x800073 <seconds+0x1>
 234:	80 93 74 00 	sts	0x0074, r24	; 0x800074 <seconds+0x2>
 238:	90 93 75 00 	sts	0x0075, r25	; 0x800075 <seconds+0x3>
	interval += 2.1;
 23c:	26 e6       	ldi	r18, 0x66	; 102
 23e:	36 e6       	ldi	r19, 0x66	; 102
 240:	46 e0       	ldi	r20, 0x06	; 6
 242:	50 e4       	ldi	r21, 0x40	; 64
 244:	60 91 6e 00 	lds	r22, 0x006E	; 0x80006e <__data_end>
 248:	70 91 6f 00 	lds	r23, 0x006F	; 0x80006f <__data_end+0x1>
 24c:	80 91 70 00 	lds	r24, 0x0070	; 0x800070 <__data_end+0x2>
 250:	90 91 71 00 	lds	r25, 0x0071	; 0x800071 <__data_end+0x3>
 254:	4d d2       	rcall	.+1178   	; 0x6f0 <__addsf3>
 256:	60 93 6e 00 	sts	0x006E, r22	; 0x80006e <__data_end>
 25a:	70 93 6f 00 	sts	0x006F, r23	; 0x80006f <__data_end+0x1>
 25e:	80 93 70 00 	sts	0x0070, r24	; 0x800070 <__data_end+0x2>
 262:	90 93 71 00 	sts	0x0071, r25	; 0x800071 <__data_end+0x3>
	sleep_mode();
 266:	a9 df       	rcall	.-174    	; 0x1ba <sleep_mode>
	control_time();
 268:	58 df       	rcall	.-336    	; 0x11a <control_time>
}
 26a:	ff 91       	pop	r31
 26c:	ef 91       	pop	r30
 26e:	bf 91       	pop	r27
 270:	af 91       	pop	r26
 272:	9f 91       	pop	r25
 274:	8f 91       	pop	r24
 276:	7f 91       	pop	r23
 278:	6f 91       	pop	r22
 27a:	5f 91       	pop	r21
 27c:	4f 91       	pop	r20
 27e:	3f 91       	pop	r19
 280:	2f 91       	pop	r18
 282:	0f 90       	pop	r0
 284:	0f be       	out	0x3f, r0	; 63
 286:	0f 90       	pop	r0
 288:	1f 90       	pop	r1
 28a:	18 95       	reti

0000028c <__vector_1>:

ISR(INT0_vect)
{
 28c:	1f 92       	push	r1
 28e:	0f 92       	push	r0
 290:	0f b6       	in	r0, 0x3f	; 63
 292:	0f 92       	push	r0
 294:	11 24       	eor	r1, r1
 296:	2f 93       	push	r18
 298:	3f 93       	push	r19
 29a:	4f 93       	push	r20
 29c:	5f 93       	push	r21
 29e:	6f 93       	push	r22
 2a0:	7f 93       	push	r23
 2a2:	8f 93       	push	r24
 2a4:	9f 93       	push	r25
 2a6:	af 93       	push	r26
 2a8:	bf 93       	push	r27
 2aa:	ef 93       	push	r30
 2ac:	ff 93       	push	r31
	control_time();
 2ae:	35 df       	rcall	.-406    	; 0x11a <control_time>
	interval = 0;
 2b0:	10 92 6e 00 	sts	0x006E, r1	; 0x80006e <__data_end>
 2b4:	10 92 6f 00 	sts	0x006F, r1	; 0x80006f <__data_end+0x1>
 2b8:	10 92 70 00 	sts	0x0070, r1	; 0x800070 <__data_end+0x2>
 2bc:	10 92 71 00 	sts	0x0071, r1	; 0x800071 <__data_end+0x3>
	wakeup_display();
 2c0:	d8 de       	rcall	.-592    	; 0x72 <wakeup_display>
	print_time_on_display();
 2c2:	da de       	rcall	.-588    	; 0x78 <print_time_on_display>
}
 2c4:	ff 91       	pop	r31
 2c6:	ef 91       	pop	r30
 2c8:	bf 91       	pop	r27
 2ca:	af 91       	pop	r26
 2cc:	9f 91       	pop	r25
 2ce:	8f 91       	pop	r24
 2d0:	7f 91       	pop	r23
 2d2:	6f 91       	pop	r22
 2d4:	5f 91       	pop	r21
 2d6:	4f 91       	pop	r20
 2d8:	3f 91       	pop	r19
 2da:	2f 91       	pop	r18
 2dc:	0f 90       	pop	r0
 2de:	0f be       	out	0x3f, r0	; 63
 2e0:	0f 90       	pop	r0
 2e2:	1f 90       	pop	r1
 2e4:	18 95       	reti

000002e6 <__vector_2>:

ISR(INT1_vect)
{
 2e6:	1f 92       	push	r1
 2e8:	0f 92       	push	r0
 2ea:	0f b6       	in	r0, 0x3f	; 63
 2ec:	0f 92       	push	r0
 2ee:	11 24       	eor	r1, r1
	/*_delay_us(1);
	lcd_wakeup();
	event_listener();
	interval = 0;*/
}
 2f0:	0f 90       	pop	r0
 2f2:	0f be       	out	0x3f, r0	; 63
 2f4:	0f 90       	pop	r0
 2f6:	1f 90       	pop	r1
 2f8:	18 95       	reti

000002fa <main>:


int main(void)
{
	TIMSK |= (1 << TOIE1);
 2fa:	89 b7       	in	r24, 0x39	; 57
 2fc:	84 60       	ori	r24, 0x04	; 4
 2fe:	89 bf       	out	0x39, r24	; 57
	sei();
 300:	78 94       	sei
	TCCR1B |= (1 << CS12);
 302:	8e b5       	in	r24, 0x2e	; 46
 304:	84 60       	ori	r24, 0x04	; 4
 306:	8e bd       	out	0x2e, r24	; 46
	
	//внешние прерывания
	MCUCR = (1 << ISC11) | (1 << ISC01);
 308:	8a e0       	ldi	r24, 0x0A	; 10
 30a:	85 bf       	out	0x35, r24	; 53
	GICR |= (1 << INT0) | (1 << INT1);
 30c:	8b b7       	in	r24, 0x3b	; 59
 30e:	80 6c       	ori	r24, 0xC0	; 192
 310:	8b bf       	out	0x3b, r24	; 59
	DDRD = 0;
 312:	11 ba       	out	0x11, r1	; 17
	PORTD |= (1 << PD2) | (1 << PD3) | (1 << MENU_BTN) | (1 << UP_BTN) | (1 << DOWN_BTN);
 314:	82 b3       	in	r24, 0x12	; 18
 316:	8c 67       	ori	r24, 0x7C	; 124
 318:	82 bb       	out	0x12, r24	; 18
	
	// пин для диода
	DDRB |= (1 << PB1);
 31a:	87 b3       	in	r24, 0x17	; 23
 31c:	82 60       	ori	r24, 0x02	; 2
 31e:	87 bb       	out	0x17, r24	; 23
	PORTB |= (1 << PB1);
 320:	88 b3       	in	r24, 0x18	; 24
 322:	82 60       	ori	r24, 0x02	; 2
 324:	88 bb       	out	0x18, r24	; 24
	
	TM1637_init();
 326:	04 d0       	rcall	.+8      	; 0x330 <TM1637_init>
	TM1637_turnOnAndSetBrightness(BRIGHTNES);
 328:	81 e0       	ldi	r24, 0x01	; 1
 32a:	d3 d0       	rcall	.+422    	; 0x4d2 <TM1637_turnOnAndSetBrightness>
	print_time_on_display();
 32c:	a5 de       	rcall	.-694    	; 0x78 <print_time_on_display>
 32e:	ff cf       	rjmp	.-2      	; 0x32e <main+0x34>

00000330 <TM1637_init>:
	#else
		//round up by default
		__ticks_dc = (uint32_t)(ceil(fabs(__tmp)));
	#endif

	__builtin_avr_delay_cycles(__ticks_dc);
 330:	84 b3       	in	r24, 0x14	; 20
 332:	8f 7e       	andi	r24, 0xEF	; 239
 334:	84 bb       	out	0x14, r24	; 20
 336:	84 b3       	in	r24, 0x14	; 20
 338:	8f 7d       	andi	r24, 0xDF	; 223
 33a:	84 bb       	out	0x14, r24	; 20
 33c:	85 b3       	in	r24, 0x15	; 21
 33e:	8f 7c       	andi	r24, 0xCF	; 207
 340:	85 bb       	out	0x15, r24	; 21
 342:	84 b3       	in	r24, 0x14	; 20
 344:	80 61       	ori	r24, 0x10	; 16
 346:	84 bb       	out	0x14, r24	; 20
 348:	82 e4       	ldi	r24, 0x42	; 66
 34a:	8a 95       	dec	r24
 34c:	f1 f7       	brne	.-4      	; 0x34a <TM1637_init+0x1a>
 34e:	00 c0       	rjmp	.+0      	; 0x350 <TM1637_init+0x20>
 350:	90 e0       	ldi	r25, 0x00	; 0
 352:	20 e4       	ldi	r18, 0x40	; 64
 354:	1d c0       	rjmp	.+58     	; 0x390 <TM1637_init+0x60>
 356:	84 b3       	in	r24, 0x14	; 20
 358:	80 62       	ori	r24, 0x20	; 32
 35a:	84 bb       	out	0x14, r24	; 20
 35c:	81 e2       	ldi	r24, 0x21	; 33
 35e:	8a 95       	dec	r24
 360:	f1 f7       	brne	.-4      	; 0x35e <TM1637_init+0x2e>
 362:	00 00       	nop
 364:	20 ff       	sbrs	r18, 0
 366:	04 c0       	rjmp	.+8      	; 0x370 <TM1637_init+0x40>
 368:	84 b3       	in	r24, 0x14	; 20
 36a:	8f 7e       	andi	r24, 0xEF	; 239
 36c:	84 bb       	out	0x14, r24	; 20
 36e:	03 c0       	rjmp	.+6      	; 0x376 <TM1637_init+0x46>
 370:	84 b3       	in	r24, 0x14	; 20
 372:	80 61       	ori	r24, 0x10	; 16
 374:	84 bb       	out	0x14, r24	; 20
 376:	81 e2       	ldi	r24, 0x21	; 33
 378:	8a 95       	dec	r24
 37a:	f1 f7       	brne	.-4      	; 0x378 <TM1637_init+0x48>
 37c:	00 00       	nop
 37e:	84 b3       	in	r24, 0x14	; 20
 380:	8f 7d       	andi	r24, 0xDF	; 223
 382:	84 bb       	out	0x14, r24	; 20
 384:	82 e4       	ldi	r24, 0x42	; 66
 386:	8a 95       	dec	r24
 388:	f1 f7       	brne	.-4      	; 0x386 <TM1637_init+0x56>
 38a:	00 c0       	rjmp	.+0      	; 0x38c <TM1637_init+0x5c>
 38c:	26 95       	lsr	r18
 38e:	9f 5f       	subi	r25, 0xFF	; 255
 390:	98 30       	cpi	r25, 0x08	; 8
 392:	08 f3       	brcs	.-62     	; 0x356 <TM1637_init+0x26>
 394:	84 b3       	in	r24, 0x14	; 20
 396:	80 62       	ori	r24, 0x20	; 32
 398:	84 bb       	out	0x14, r24	; 20
 39a:	84 b3       	in	r24, 0x14	; 20
 39c:	8f 7e       	andi	r24, 0xEF	; 239
 39e:	84 bb       	out	0x14, r24	; 20
 3a0:	82 e4       	ldi	r24, 0x42	; 66
 3a2:	8a 95       	dec	r24
 3a4:	f1 f7       	brne	.-4      	; 0x3a2 <TM1637_init+0x72>
 3a6:	00 c0       	rjmp	.+0      	; 0x3a8 <TM1637_init+0x78>
 3a8:	84 b3       	in	r24, 0x14	; 20
 3aa:	8f 7d       	andi	r24, 0xDF	; 223
 3ac:	84 bb       	out	0x14, r24	; 20
 3ae:	81 e2       	ldi	r24, 0x21	; 33
 3b0:	8a 95       	dec	r24
 3b2:	f1 f7       	brne	.-4      	; 0x3b0 <TM1637_init+0x80>
 3b4:	00 00       	nop
 3b6:	9c 99       	sbic	0x13, 4	; 19
 3b8:	03 c0       	rjmp	.+6      	; 0x3c0 <TM1637_init+0x90>
 3ba:	84 b3       	in	r24, 0x14	; 20
 3bc:	80 61       	ori	r24, 0x10	; 16
 3be:	84 bb       	out	0x14, r24	; 20
 3c0:	81 e2       	ldi	r24, 0x21	; 33
 3c2:	8a 95       	dec	r24
 3c4:	f1 f7       	brne	.-4      	; 0x3c2 <TM1637_init+0x92>
 3c6:	00 00       	nop
 3c8:	84 b3       	in	r24, 0x14	; 20
 3ca:	80 62       	ori	r24, 0x20	; 32
 3cc:	84 bb       	out	0x14, r24	; 20
 3ce:	81 e2       	ldi	r24, 0x21	; 33
 3d0:	8a 95       	dec	r24
 3d2:	f1 f7       	brne	.-4      	; 0x3d0 <TM1637_init+0xa0>
 3d4:	00 00       	nop
 3d6:	84 b3       	in	r24, 0x14	; 20
 3d8:	80 61       	ori	r24, 0x10	; 16
 3da:	84 bb       	out	0x14, r24	; 20
 3dc:	81 e2       	ldi	r24, 0x21	; 33
 3de:	8a 95       	dec	r24
 3e0:	f1 f7       	brne	.-4      	; 0x3de <TM1637_init+0xae>
 3e2:	00 00       	nop
 3e4:	84 b3       	in	r24, 0x14	; 20
 3e6:	8f 7d       	andi	r24, 0xDF	; 223
 3e8:	84 bb       	out	0x14, r24	; 20
 3ea:	82 e4       	ldi	r24, 0x42	; 66
 3ec:	8a 95       	dec	r24
 3ee:	f1 f7       	brne	.-4      	; 0x3ec <TM1637_init+0xbc>
 3f0:	00 c0       	rjmp	.+0      	; 0x3f2 <TM1637_init+0xc2>
 3f2:	84 b3       	in	r24, 0x14	; 20
 3f4:	8f 7e       	andi	r24, 0xEF	; 239
 3f6:	84 bb       	out	0x14, r24	; 20
 3f8:	82 e4       	ldi	r24, 0x42	; 66
 3fa:	8a 95       	dec	r24
 3fc:	f1 f7       	brne	.-4      	; 0x3fa <TM1637_init+0xca>
 3fe:	00 c0       	rjmp	.+0      	; 0x400 <__DATA_REGION_LENGTH__>
 400:	08 95       	ret

00000402 <TM1637_turnOff>:
 402:	80 91 76 00 	lds	r24, 0x0076	; 0x800076 <TM1637_brightness_reg>
 406:	87 70       	andi	r24, 0x07	; 7
 408:	80 93 76 00 	sts	0x0076, r24	; 0x800076 <TM1637_brightness_reg>
 40c:	84 b3       	in	r24, 0x14	; 20
 40e:	80 61       	ori	r24, 0x10	; 16
 410:	84 bb       	out	0x14, r24	; 20
 412:	82 e4       	ldi	r24, 0x42	; 66
 414:	8a 95       	dec	r24
 416:	f1 f7       	brne	.-4      	; 0x414 <TM1637_turnOff+0x12>
 418:	00 c0       	rjmp	.+0      	; 0x41a <TM1637_turnOff+0x18>
 41a:	90 91 76 00 	lds	r25, 0x0076	; 0x800076 <TM1637_brightness_reg>
 41e:	9f 70       	andi	r25, 0x0F	; 15
 420:	90 68       	ori	r25, 0x80	; 128
 422:	20 e0       	ldi	r18, 0x00	; 0
 424:	1d c0       	rjmp	.+58     	; 0x460 <__stack+0x1>
 426:	84 b3       	in	r24, 0x14	; 20
 428:	80 62       	ori	r24, 0x20	; 32
 42a:	84 bb       	out	0x14, r24	; 20
 42c:	81 e2       	ldi	r24, 0x21	; 33
 42e:	8a 95       	dec	r24
 430:	f1 f7       	brne	.-4      	; 0x42e <TM1637_turnOff+0x2c>
 432:	00 00       	nop
 434:	90 ff       	sbrs	r25, 0
 436:	04 c0       	rjmp	.+8      	; 0x440 <TM1637_turnOff+0x3e>
 438:	84 b3       	in	r24, 0x14	; 20
 43a:	8f 7e       	andi	r24, 0xEF	; 239
 43c:	84 bb       	out	0x14, r24	; 20
 43e:	03 c0       	rjmp	.+6      	; 0x446 <TM1637_turnOff+0x44>
 440:	84 b3       	in	r24, 0x14	; 20
 442:	80 61       	ori	r24, 0x10	; 16
 444:	84 bb       	out	0x14, r24	; 20
 446:	81 e2       	ldi	r24, 0x21	; 33
 448:	8a 95       	dec	r24
 44a:	f1 f7       	brne	.-4      	; 0x448 <TM1637_turnOff+0x46>
 44c:	00 00       	nop
 44e:	84 b3       	in	r24, 0x14	; 20
 450:	8f 7d       	andi	r24, 0xDF	; 223
 452:	84 bb       	out	0x14, r24	; 20
 454:	82 e4       	ldi	r24, 0x42	; 66
 456:	8a 95       	dec	r24
 458:	f1 f7       	brne	.-4      	; 0x456 <TM1637_turnOff+0x54>
 45a:	00 c0       	rjmp	.+0      	; 0x45c <TM1637_turnOff+0x5a>
 45c:	96 95       	lsr	r25
 45e:	2f 5f       	subi	r18, 0xFF	; 255
 460:	28 30       	cpi	r18, 0x08	; 8
 462:	08 f3       	brcs	.-62     	; 0x426 <TM1637_turnOff+0x24>
 464:	84 b3       	in	r24, 0x14	; 20
 466:	80 62       	ori	r24, 0x20	; 32
 468:	84 bb       	out	0x14, r24	; 20
 46a:	84 b3       	in	r24, 0x14	; 20
 46c:	8f 7e       	andi	r24, 0xEF	; 239
 46e:	84 bb       	out	0x14, r24	; 20
 470:	82 e4       	ldi	r24, 0x42	; 66
 472:	8a 95       	dec	r24
 474:	f1 f7       	brne	.-4      	; 0x472 <__stack+0x13>
 476:	00 c0       	rjmp	.+0      	; 0x478 <__stack+0x19>
 478:	84 b3       	in	r24, 0x14	; 20
 47a:	8f 7d       	andi	r24, 0xDF	; 223
 47c:	84 bb       	out	0x14, r24	; 20
 47e:	81 e2       	ldi	r24, 0x21	; 33
 480:	8a 95       	dec	r24
 482:	f1 f7       	brne	.-4      	; 0x480 <__stack+0x21>
 484:	00 00       	nop
 486:	9c 99       	sbic	0x13, 4	; 19
 488:	03 c0       	rjmp	.+6      	; 0x490 <__stack+0x31>
 48a:	84 b3       	in	r24, 0x14	; 20
 48c:	80 61       	ori	r24, 0x10	; 16
 48e:	84 bb       	out	0x14, r24	; 20
 490:	81 e2       	ldi	r24, 0x21	; 33
 492:	8a 95       	dec	r24
 494:	f1 f7       	brne	.-4      	; 0x492 <__stack+0x33>
 496:	00 00       	nop
 498:	84 b3       	in	r24, 0x14	; 20
 49a:	80 62       	ori	r24, 0x20	; 32
 49c:	84 bb       	out	0x14, r24	; 20
 49e:	81 e2       	ldi	r24, 0x21	; 33
 4a0:	8a 95       	dec	r24
 4a2:	f1 f7       	brne	.-4      	; 0x4a0 <__stack+0x41>
 4a4:	00 00       	nop
 4a6:	84 b3       	in	r24, 0x14	; 20
 4a8:	80 61       	ori	r24, 0x10	; 16
 4aa:	84 bb       	out	0x14, r24	; 20
 4ac:	81 e2       	ldi	r24, 0x21	; 33
 4ae:	8a 95       	dec	r24
 4b0:	f1 f7       	brne	.-4      	; 0x4ae <__stack+0x4f>
 4b2:	00 00       	nop
 4b4:	84 b3       	in	r24, 0x14	; 20
 4b6:	8f 7d       	andi	r24, 0xDF	; 223
 4b8:	84 bb       	out	0x14, r24	; 20
 4ba:	82 e4       	ldi	r24, 0x42	; 66
 4bc:	8a 95       	dec	r24
 4be:	f1 f7       	brne	.-4      	; 0x4bc <__stack+0x5d>
 4c0:	00 c0       	rjmp	.+0      	; 0x4c2 <__stack+0x63>
 4c2:	84 b3       	in	r24, 0x14	; 20
 4c4:	8f 7e       	andi	r24, 0xEF	; 239
 4c6:	84 bb       	out	0x14, r24	; 20
 4c8:	82 e4       	ldi	r24, 0x42	; 66
 4ca:	8a 95       	dec	r24
 4cc:	f1 f7       	brne	.-4      	; 0x4ca <__stack+0x6b>
 4ce:	00 c0       	rjmp	.+0      	; 0x4d0 <__stack+0x71>
 4d0:	08 95       	ret

000004d2 <TM1637_turnOnAndSetBrightness>:
  TM1637_brightness_reg = (TM1637_brightness_reg & TM1637_MASK_ON_OFF) | (brightness & TM1637_MASK_BRIGHTNESS);
  TM1637_writeBrightnessReg();
}

void TM1637_turnOnAndSetBrightness(uint8_t brightness) {
  TM1637_brightness_reg = TM1637_MASK_ON_OFF | (brightness & TM1637_MASK_BRIGHTNESS);
 4d2:	87 70       	andi	r24, 0x07	; 7
 4d4:	88 60       	ori	r24, 0x08	; 8
 4d6:	80 93 76 00 	sts	0x0076, r24	; 0x800076 <TM1637_brightness_reg>
  TM1637_COMM_STOP;
}

static inline void TM1637_writeBrightnessReg(void) {
  // Write TM1637_CMD_SET_BRIGHTNESS + TM1637_brightness_reg
  TM1637_COMM_START;
 4da:	84 b3       	in	r24, 0x14	; 20
 4dc:	80 61       	ori	r24, 0x10	; 16
 4de:	84 bb       	out	0x14, r24	; 20
 4e0:	82 e4       	ldi	r24, 0x42	; 66
 4e2:	8a 95       	dec	r24
 4e4:	f1 f7       	brne	.-4      	; 0x4e2 <TM1637_turnOnAndSetBrightness+0x10>
 4e6:	00 c0       	rjmp	.+0      	; 0x4e8 <TM1637_turnOnAndSetBrightness+0x16>
  TM1637_writeByte(TM1637_CMD_SET_BRIGHTNESS | (TM1637_brightness_reg & TM1637_MASK_BRIGHTNESS_REG));
 4e8:	90 91 76 00 	lds	r25, 0x0076	; 0x800076 <TM1637_brightness_reg>
 4ec:	9f 70       	andi	r25, 0x0F	; 15
 4ee:	90 68       	ori	r25, 0x80	; 128
  };


static inline uint8_t TM1637_writeByte(uint8_t data) {
  // Write data byte
  for (uint8_t i = 0; i < 8; i++) {
 4f0:	20 e0       	ldi	r18, 0x00	; 0
 4f2:	1d c0       	rjmp	.+58     	; 0x52e <TM1637_turnOnAndSetBrightness+0x5c>
    TM1637_SET_CLK_LOW_AND_OUTPUT;
 4f4:	84 b3       	in	r24, 0x14	; 20
 4f6:	80 62       	ori	r24, 0x20	; 32
 4f8:	84 bb       	out	0x14, r24	; 20
 4fa:	81 e2       	ldi	r24, 0x21	; 33
 4fc:	8a 95       	dec	r24
 4fe:	f1 f7       	brne	.-4      	; 0x4fc <TM1637_turnOnAndSetBrightness+0x2a>
 500:	00 00       	nop
    TM1637_QUARTER_CYCLE_DELAY;

    // Set data bit
    if (data & 1) TM1637_SET_DIO_HIGH_AND_INPUT;
 502:	90 ff       	sbrs	r25, 0
 504:	04 c0       	rjmp	.+8      	; 0x50e <TM1637_turnOnAndSetBrightness+0x3c>
 506:	84 b3       	in	r24, 0x14	; 20
 508:	8f 7e       	andi	r24, 0xEF	; 239
 50a:	84 bb       	out	0x14, r24	; 20
 50c:	03 c0       	rjmp	.+6      	; 0x514 <TM1637_turnOnAndSetBrightness+0x42>
    else TM1637_SET_DIO_LOW_AND_OUTPUT;
 50e:	84 b3       	in	r24, 0x14	; 20
 510:	80 61       	ori	r24, 0x10	; 16
 512:	84 bb       	out	0x14, r24	; 20
 514:	81 e2       	ldi	r24, 0x21	; 33
 516:	8a 95       	dec	r24
 518:	f1 f7       	brne	.-4      	; 0x516 <TM1637_turnOnAndSetBrightness+0x44>
 51a:	00 00       	nop
    TM1637_QUARTER_CYCLE_DELAY;

    TM1637_SET_CLK_HIGH_AND_INPUT;
 51c:	84 b3       	in	r24, 0x14	; 20
 51e:	8f 7d       	andi	r24, 0xDF	; 223
 520:	84 bb       	out	0x14, r24	; 20
 522:	82 e4       	ldi	r24, 0x42	; 66
 524:	8a 95       	dec	r24
 526:	f1 f7       	brne	.-4      	; 0x524 <TM1637_turnOnAndSetBrightness+0x52>
 528:	00 c0       	rjmp	.+0      	; 0x52a <TM1637_turnOnAndSetBrightness+0x58>
    TM1637_HALF_CYCLE_DELAY;
    data >>= 1;
 52a:	96 95       	lsr	r25
  };


static inline uint8_t TM1637_writeByte(uint8_t data) {
  // Write data byte
  for (uint8_t i = 0; i < 8; i++) {
 52c:	2f 5f       	subi	r18, 0xFF	; 255
 52e:	28 30       	cpi	r18, 0x08	; 8
 530:	08 f3       	brcs	.-62     	; 0x4f4 <TM1637_turnOnAndSetBrightness+0x22>
    TM1637_HALF_CYCLE_DELAY;
    data >>= 1;
  }

  // Prepare for receiving acknowledgement
  TM1637_SET_CLK_LOW_AND_OUTPUT;
 532:	84 b3       	in	r24, 0x14	; 20
 534:	80 62       	ori	r24, 0x20	; 32
 536:	84 bb       	out	0x14, r24	; 20
  TM1637_SET_DIO_HIGH_AND_INPUT;
 538:	84 b3       	in	r24, 0x14	; 20
 53a:	8f 7e       	andi	r24, 0xEF	; 239
 53c:	84 bb       	out	0x14, r24	; 20
 53e:	82 e4       	ldi	r24, 0x42	; 66
 540:	8a 95       	dec	r24
 542:	f1 f7       	brne	.-4      	; 0x540 <TM1637_turnOnAndSetBrightness+0x6e>
 544:	00 c0       	rjmp	.+0      	; 0x546 <TM1637_turnOnAndSetBrightness+0x74>
  TM1637_HALF_CYCLE_DELAY;

  // Read acknowledgement
  TM1637_SET_CLK_HIGH_AND_INPUT;
 546:	84 b3       	in	r24, 0x14	; 20
 548:	8f 7d       	andi	r24, 0xDF	; 223
 54a:	84 bb       	out	0x14, r24	; 20
 54c:	81 e2       	ldi	r24, 0x21	; 33
 54e:	8a 95       	dec	r24
 550:	f1 f7       	brne	.-4      	; 0x54e <TM1637_turnOnAndSetBrightness+0x7c>
 552:	00 00       	nop
  TM1637_QUARTER_CYCLE_DELAY;
  uint8_t ack = TM1637_READ_DIO;
  if (ack == 0)                     // Not strictly necessary, but it's a good idea
 554:	9c 99       	sbic	0x13, 4	; 19
 556:	03 c0       	rjmp	.+6      	; 0x55e <TM1637_turnOnAndSetBrightness+0x8c>
    TM1637_SET_DIO_LOW_AND_OUTPUT;  // to avoid unnecessary voltage changes on DIO when possible
 558:	84 b3       	in	r24, 0x14	; 20
 55a:	80 61       	ori	r24, 0x10	; 16
 55c:	84 bb       	out	0x14, r24	; 20
 55e:	81 e2       	ldi	r24, 0x21	; 33
 560:	8a 95       	dec	r24
 562:	f1 f7       	brne	.-4      	; 0x560 <TM1637_turnOnAndSetBrightness+0x8e>
 564:	00 00       	nop

static inline void TM1637_writeBrightnessReg(void) {
  // Write TM1637_CMD_SET_BRIGHTNESS + TM1637_brightness_reg
  TM1637_COMM_START;
  TM1637_writeByte(TM1637_CMD_SET_BRIGHTNESS | (TM1637_brightness_reg & TM1637_MASK_BRIGHTNESS_REG));
  TM1637_COMM_STOP;
 566:	84 b3       	in	r24, 0x14	; 20
 568:	80 62       	ori	r24, 0x20	; 32
 56a:	84 bb       	out	0x14, r24	; 20
 56c:	81 e2       	ldi	r24, 0x21	; 33
 56e:	8a 95       	dec	r24
 570:	f1 f7       	brne	.-4      	; 0x56e <TM1637_turnOnAndSetBrightness+0x9c>
 572:	00 00       	nop
 574:	84 b3       	in	r24, 0x14	; 20
 576:	80 61       	ori	r24, 0x10	; 16
 578:	84 bb       	out	0x14, r24	; 20
 57a:	81 e2       	ldi	r24, 0x21	; 33
 57c:	8a 95       	dec	r24
 57e:	f1 f7       	brne	.-4      	; 0x57c <TM1637_turnOnAndSetBrightness+0xaa>
 580:	00 00       	nop
 582:	84 b3       	in	r24, 0x14	; 20
 584:	8f 7d       	andi	r24, 0xDF	; 223
 586:	84 bb       	out	0x14, r24	; 20
 588:	82 e4       	ldi	r24, 0x42	; 66
 58a:	8a 95       	dec	r24
 58c:	f1 f7       	brne	.-4      	; 0x58a <TM1637_turnOnAndSetBrightness+0xb8>
 58e:	00 c0       	rjmp	.+0      	; 0x590 <TM1637_turnOnAndSetBrightness+0xbe>
 590:	84 b3       	in	r24, 0x14	; 20
 592:	8f 7e       	andi	r24, 0xEF	; 239
 594:	84 bb       	out	0x14, r24	; 20
 596:	82 e4       	ldi	r24, 0x42	; 66
 598:	8a 95       	dec	r24
 59a:	f1 f7       	brne	.-4      	; 0x598 <TM1637_turnOnAndSetBrightness+0xc6>
 59c:	00 c0       	rjmp	.+0      	; 0x59e <TM1637_turnOnAndSetBrightness+0xcc>
 59e:	08 95       	ret

000005a0 <TM1637_setSegments>:
void TM1637_turnOnAndSetBrightness(uint8_t brightness) {
  TM1637_brightness_reg = TM1637_MASK_ON_OFF | (brightness & TM1637_MASK_BRIGHTNESS);
  TM1637_writeBrightnessReg();
}

void TM1637_setSegments(const uint8_t segments[], uint8_t length, uint8_t pos) {
 5a0:	fc 01       	movw	r30, r24
  TM1637_COMM_START;
 5a2:	84 b3       	in	r24, 0x14	; 20
 5a4:	80 61       	ori	r24, 0x10	; 16
 5a6:	84 bb       	out	0x14, r24	; 20
 5a8:	82 e4       	ldi	r24, 0x42	; 66
 5aa:	8a 95       	dec	r24
 5ac:	f1 f7       	brne	.-4      	; 0x5aa <TM1637_setSegments+0xa>
 5ae:	00 c0       	rjmp	.+0      	; 0x5b0 <TM1637_setSegments+0x10>
  // Write TM1637_CMD_SET_DATA + first digit address
  TM1637_writeByte(TM1637_CMD_SET_DATA | (pos & TM1637_MASK_POS));
 5b0:	43 70       	andi	r20, 0x03	; 3
 5b2:	40 6c       	ori	r20, 0xC0	; 192
  };


static inline uint8_t TM1637_writeByte(uint8_t data) {
  // Write data byte
  for (uint8_t i = 0; i < 8; i++) {
 5b4:	90 e0       	ldi	r25, 0x00	; 0
 5b6:	1d c0       	rjmp	.+58     	; 0x5f2 <TM1637_setSegments+0x52>
    TM1637_SET_CLK_LOW_AND_OUTPUT;
 5b8:	84 b3       	in	r24, 0x14	; 20
 5ba:	80 62       	ori	r24, 0x20	; 32
 5bc:	84 bb       	out	0x14, r24	; 20
 5be:	81 e2       	ldi	r24, 0x21	; 33
 5c0:	8a 95       	dec	r24
 5c2:	f1 f7       	brne	.-4      	; 0x5c0 <TM1637_setSegments+0x20>
 5c4:	00 00       	nop
    TM1637_QUARTER_CYCLE_DELAY;

    // Set data bit
    if (data & 1) TM1637_SET_DIO_HIGH_AND_INPUT;
 5c6:	40 ff       	sbrs	r20, 0
 5c8:	04 c0       	rjmp	.+8      	; 0x5d2 <TM1637_setSegments+0x32>
 5ca:	84 b3       	in	r24, 0x14	; 20
 5cc:	8f 7e       	andi	r24, 0xEF	; 239
 5ce:	84 bb       	out	0x14, r24	; 20
 5d0:	03 c0       	rjmp	.+6      	; 0x5d8 <TM1637_setSegments+0x38>
    else TM1637_SET_DIO_LOW_AND_OUTPUT;
 5d2:	84 b3       	in	r24, 0x14	; 20
 5d4:	80 61       	ori	r24, 0x10	; 16
 5d6:	84 bb       	out	0x14, r24	; 20
 5d8:	81 e2       	ldi	r24, 0x21	; 33
 5da:	8a 95       	dec	r24
 5dc:	f1 f7       	brne	.-4      	; 0x5da <TM1637_setSegments+0x3a>
 5de:	00 00       	nop
    TM1637_QUARTER_CYCLE_DELAY;

    TM1637_SET_CLK_HIGH_AND_INPUT;
 5e0:	84 b3       	in	r24, 0x14	; 20
 5e2:	8f 7d       	andi	r24, 0xDF	; 223
 5e4:	84 bb       	out	0x14, r24	; 20
 5e6:	82 e4       	ldi	r24, 0x42	; 66
 5e8:	8a 95       	dec	r24
 5ea:	f1 f7       	brne	.-4      	; 0x5e8 <TM1637_setSegments+0x48>
 5ec:	00 c0       	rjmp	.+0      	; 0x5ee <TM1637_setSegments+0x4e>
    TM1637_HALF_CYCLE_DELAY;
    data >>= 1;
 5ee:	46 95       	lsr	r20
  };


static inline uint8_t TM1637_writeByte(uint8_t data) {
  // Write data byte
  for (uint8_t i = 0; i < 8; i++) {
 5f0:	9f 5f       	subi	r25, 0xFF	; 255
 5f2:	98 30       	cpi	r25, 0x08	; 8
 5f4:	08 f3       	brcs	.-62     	; 0x5b8 <TM1637_setSegments+0x18>
    TM1637_HALF_CYCLE_DELAY;
    data >>= 1;
  }

  // Prepare for receiving acknowledgement
  TM1637_SET_CLK_LOW_AND_OUTPUT;
 5f6:	84 b3       	in	r24, 0x14	; 20
 5f8:	80 62       	ori	r24, 0x20	; 32
 5fa:	84 bb       	out	0x14, r24	; 20
  TM1637_SET_DIO_HIGH_AND_INPUT;
 5fc:	84 b3       	in	r24, 0x14	; 20
 5fe:	8f 7e       	andi	r24, 0xEF	; 239
 600:	84 bb       	out	0x14, r24	; 20
 602:	82 e4       	ldi	r24, 0x42	; 66
 604:	8a 95       	dec	r24
 606:	f1 f7       	brne	.-4      	; 0x604 <TM1637_setSegments+0x64>
 608:	00 c0       	rjmp	.+0      	; 0x60a <TM1637_setSegments+0x6a>
  TM1637_HALF_CYCLE_DELAY;

  // Read acknowledgement
  TM1637_SET_CLK_HIGH_AND_INPUT;
 60a:	84 b3       	in	r24, 0x14	; 20
 60c:	8f 7d       	andi	r24, 0xDF	; 223
 60e:	84 bb       	out	0x14, r24	; 20
 610:	81 e2       	ldi	r24, 0x21	; 33
 612:	8a 95       	dec	r24
 614:	f1 f7       	brne	.-4      	; 0x612 <TM1637_setSegments+0x72>
 616:	00 00       	nop
  TM1637_QUARTER_CYCLE_DELAY;
  uint8_t ack = TM1637_READ_DIO;
  if (ack == 0)                     // Not strictly necessary, but it's a good idea
 618:	9c 99       	sbic	0x13, 4	; 19
 61a:	03 c0       	rjmp	.+6      	; 0x622 <TM1637_setSegments+0x82>
    TM1637_SET_DIO_LOW_AND_OUTPUT;  // to avoid unnecessary voltage changes on DIO when possible
 61c:	84 b3       	in	r24, 0x14	; 20
 61e:	80 61       	ori	r24, 0x10	; 16
 620:	84 bb       	out	0x14, r24	; 20
 622:	81 e2       	ldi	r24, 0x21	; 33
 624:	8a 95       	dec	r24
 626:	f1 f7       	brne	.-4      	; 0x624 <TM1637_setSegments+0x84>
 628:	00 00       	nop
void TM1637_setSegments(const uint8_t segments[], uint8_t length, uint8_t pos) {
  TM1637_COMM_START;
  // Write TM1637_CMD_SET_DATA + first digit address
  TM1637_writeByte(TM1637_CMD_SET_DATA | (pos & TM1637_MASK_POS));
  // Write data bytes
  for (uint8_t i = 0; i < length; i++)
 62a:	40 e0       	ldi	r20, 0x00	; 0
 62c:	40 c0       	rjmp	.+128    	; 0x6ae <TM1637_setSegments+0x10e>
    TM1637_writeByte(segments[i]);
 62e:	df 01       	movw	r26, r30
 630:	a4 0f       	add	r26, r20
 632:	b1 1d       	adc	r27, r1
 634:	3c 91       	ld	r19, X
  };


static inline uint8_t TM1637_writeByte(uint8_t data) {
  // Write data byte
  for (uint8_t i = 0; i < 8; i++) {
 636:	20 e0       	ldi	r18, 0x00	; 0
 638:	1d c0       	rjmp	.+58     	; 0x674 <TM1637_setSegments+0xd4>
    TM1637_SET_CLK_LOW_AND_OUTPUT;
 63a:	94 b3       	in	r25, 0x14	; 20
 63c:	90 62       	ori	r25, 0x20	; 32
 63e:	94 bb       	out	0x14, r25	; 20
 640:	81 e2       	ldi	r24, 0x21	; 33
 642:	8a 95       	dec	r24
 644:	f1 f7       	brne	.-4      	; 0x642 <TM1637_setSegments+0xa2>
 646:	00 00       	nop
    TM1637_QUARTER_CYCLE_DELAY;

    // Set data bit
    if (data & 1) TM1637_SET_DIO_HIGH_AND_INPUT;
 648:	30 ff       	sbrs	r19, 0
 64a:	04 c0       	rjmp	.+8      	; 0x654 <TM1637_setSegments+0xb4>
 64c:	94 b3       	in	r25, 0x14	; 20
 64e:	9f 7e       	andi	r25, 0xEF	; 239
 650:	94 bb       	out	0x14, r25	; 20
 652:	03 c0       	rjmp	.+6      	; 0x65a <TM1637_setSegments+0xba>
    else TM1637_SET_DIO_LOW_AND_OUTPUT;
 654:	94 b3       	in	r25, 0x14	; 20
 656:	90 61       	ori	r25, 0x10	; 16
 658:	94 bb       	out	0x14, r25	; 20
 65a:	81 e2       	ldi	r24, 0x21	; 33
 65c:	8a 95       	dec	r24
 65e:	f1 f7       	brne	.-4      	; 0x65c <TM1637_setSegments+0xbc>
 660:	00 00       	nop
    TM1637_QUARTER_CYCLE_DELAY;

    TM1637_SET_CLK_HIGH_AND_INPUT;
 662:	94 b3       	in	r25, 0x14	; 20
 664:	9f 7d       	andi	r25, 0xDF	; 223
 666:	94 bb       	out	0x14, r25	; 20
 668:	82 e4       	ldi	r24, 0x42	; 66
 66a:	8a 95       	dec	r24
 66c:	f1 f7       	brne	.-4      	; 0x66a <TM1637_setSegments+0xca>
 66e:	00 c0       	rjmp	.+0      	; 0x670 <TM1637_setSegments+0xd0>
    TM1637_HALF_CYCLE_DELAY;
    data >>= 1;
 670:	36 95       	lsr	r19
  };


static inline uint8_t TM1637_writeByte(uint8_t data) {
  // Write data byte
  for (uint8_t i = 0; i < 8; i++) {
 672:	2f 5f       	subi	r18, 0xFF	; 255
 674:	28 30       	cpi	r18, 0x08	; 8
 676:	08 f3       	brcs	.-62     	; 0x63a <TM1637_setSegments+0x9a>
    TM1637_HALF_CYCLE_DELAY;
    data >>= 1;
  }

  // Prepare for receiving acknowledgement
  TM1637_SET_CLK_LOW_AND_OUTPUT;
 678:	84 b3       	in	r24, 0x14	; 20
 67a:	80 62       	ori	r24, 0x20	; 32
 67c:	84 bb       	out	0x14, r24	; 20
  TM1637_SET_DIO_HIGH_AND_INPUT;
 67e:	84 b3       	in	r24, 0x14	; 20
 680:	8f 7e       	andi	r24, 0xEF	; 239
 682:	84 bb       	out	0x14, r24	; 20
 684:	82 e4       	ldi	r24, 0x42	; 66
 686:	8a 95       	dec	r24
 688:	f1 f7       	brne	.-4      	; 0x686 <TM1637_setSegments+0xe6>
 68a:	00 c0       	rjmp	.+0      	; 0x68c <TM1637_setSegments+0xec>
  TM1637_HALF_CYCLE_DELAY;

  // Read acknowledgement
  TM1637_SET_CLK_HIGH_AND_INPUT;
 68c:	94 b3       	in	r25, 0x14	; 20
 68e:	9f 7d       	andi	r25, 0xDF	; 223
 690:	94 bb       	out	0x14, r25	; 20
 692:	81 e2       	ldi	r24, 0x21	; 33
 694:	8a 95       	dec	r24
 696:	f1 f7       	brne	.-4      	; 0x694 <TM1637_setSegments+0xf4>
 698:	00 00       	nop
  TM1637_QUARTER_CYCLE_DELAY;
  uint8_t ack = TM1637_READ_DIO;
  if (ack == 0)                     // Not strictly necessary, but it's a good idea
 69a:	9c 99       	sbic	0x13, 4	; 19
 69c:	03 c0       	rjmp	.+6      	; 0x6a4 <TM1637_setSegments+0x104>
    TM1637_SET_DIO_LOW_AND_OUTPUT;  // to avoid unnecessary voltage changes on DIO when possible
 69e:	84 b3       	in	r24, 0x14	; 20
 6a0:	80 61       	ori	r24, 0x10	; 16
 6a2:	84 bb       	out	0x14, r24	; 20
 6a4:	81 e2       	ldi	r24, 0x21	; 33
 6a6:	8a 95       	dec	r24
 6a8:	f1 f7       	brne	.-4      	; 0x6a6 <TM1637_setSegments+0x106>
 6aa:	00 00       	nop
void TM1637_setSegments(const uint8_t segments[], uint8_t length, uint8_t pos) {
  TM1637_COMM_START;
  // Write TM1637_CMD_SET_DATA + first digit address
  TM1637_writeByte(TM1637_CMD_SET_DATA | (pos & TM1637_MASK_POS));
  // Write data bytes
  for (uint8_t i = 0; i < length; i++)
 6ac:	4f 5f       	subi	r20, 0xFF	; 255
 6ae:	46 17       	cp	r20, r22
 6b0:	08 f4       	brcc	.+2      	; 0x6b4 <TM1637_setSegments+0x114>
 6b2:	bd cf       	rjmp	.-134    	; 0x62e <TM1637_setSegments+0x8e>
    TM1637_writeByte(segments[i]);
  TM1637_COMM_STOP;
 6b4:	84 b3       	in	r24, 0x14	; 20
 6b6:	80 62       	ori	r24, 0x20	; 32
 6b8:	84 bb       	out	0x14, r24	; 20
 6ba:	81 e2       	ldi	r24, 0x21	; 33
 6bc:	8a 95       	dec	r24
 6be:	f1 f7       	brne	.-4      	; 0x6bc <TM1637_setSegments+0x11c>
 6c0:	00 00       	nop
 6c2:	84 b3       	in	r24, 0x14	; 20
 6c4:	80 61       	ori	r24, 0x10	; 16
 6c6:	84 bb       	out	0x14, r24	; 20
 6c8:	81 e2       	ldi	r24, 0x21	; 33
 6ca:	8a 95       	dec	r24
 6cc:	f1 f7       	brne	.-4      	; 0x6ca <TM1637_setSegments+0x12a>
 6ce:	00 00       	nop
 6d0:	84 b3       	in	r24, 0x14	; 20
 6d2:	8f 7d       	andi	r24, 0xDF	; 223
 6d4:	84 bb       	out	0x14, r24	; 20
 6d6:	82 e4       	ldi	r24, 0x42	; 66
 6d8:	8a 95       	dec	r24
 6da:	f1 f7       	brne	.-4      	; 0x6d8 <TM1637_setSegments+0x138>
 6dc:	00 c0       	rjmp	.+0      	; 0x6de <TM1637_setSegments+0x13e>
 6de:	84 b3       	in	r24, 0x14	; 20
 6e0:	8f 7e       	andi	r24, 0xEF	; 239
 6e2:	84 bb       	out	0x14, r24	; 20
 6e4:	82 e4       	ldi	r24, 0x42	; 66
 6e6:	8a 95       	dec	r24
 6e8:	f1 f7       	brne	.-4      	; 0x6e6 <TM1637_setSegments+0x146>
 6ea:	00 c0       	rjmp	.+0      	; 0x6ec <TM1637_setSegments+0x14c>
 6ec:	08 95       	ret

000006ee <__subsf3>:
 6ee:	50 58       	subi	r21, 0x80	; 128

000006f0 <__addsf3>:
 6f0:	bb 27       	eor	r27, r27
 6f2:	aa 27       	eor	r26, r26
 6f4:	0e d0       	rcall	.+28     	; 0x712 <__addsf3x>
 6f6:	77 c0       	rjmp	.+238    	; 0x7e6 <__fp_round>
 6f8:	68 d0       	rcall	.+208    	; 0x7ca <__fp_pscA>
 6fa:	30 f0       	brcs	.+12     	; 0x708 <__addsf3+0x18>
 6fc:	6d d0       	rcall	.+218    	; 0x7d8 <__fp_pscB>
 6fe:	20 f0       	brcs	.+8      	; 0x708 <__addsf3+0x18>
 700:	31 f4       	brne	.+12     	; 0x70e <__addsf3+0x1e>
 702:	9f 3f       	cpi	r25, 0xFF	; 255
 704:	11 f4       	brne	.+4      	; 0x70a <__addsf3+0x1a>
 706:	1e f4       	brtc	.+6      	; 0x70e <__addsf3+0x1e>
 708:	5d c0       	rjmp	.+186    	; 0x7c4 <__fp_nan>
 70a:	0e f4       	brtc	.+2      	; 0x70e <__addsf3+0x1e>
 70c:	e0 95       	com	r30
 70e:	e7 fb       	bst	r30, 7
 710:	53 c0       	rjmp	.+166    	; 0x7b8 <__fp_inf>

00000712 <__addsf3x>:
 712:	e9 2f       	mov	r30, r25
 714:	79 d0       	rcall	.+242    	; 0x808 <__fp_split3>
 716:	80 f3       	brcs	.-32     	; 0x6f8 <__addsf3+0x8>
 718:	ba 17       	cp	r27, r26
 71a:	62 07       	cpc	r22, r18
 71c:	73 07       	cpc	r23, r19
 71e:	84 07       	cpc	r24, r20
 720:	95 07       	cpc	r25, r21
 722:	18 f0       	brcs	.+6      	; 0x72a <__addsf3x+0x18>
 724:	71 f4       	brne	.+28     	; 0x742 <__addsf3x+0x30>
 726:	9e f5       	brtc	.+102    	; 0x78e <__addsf3x+0x7c>
 728:	91 c0       	rjmp	.+290    	; 0x84c <__fp_zero>
 72a:	0e f4       	brtc	.+2      	; 0x72e <__addsf3x+0x1c>
 72c:	e0 95       	com	r30
 72e:	0b 2e       	mov	r0, r27
 730:	ba 2f       	mov	r27, r26
 732:	a0 2d       	mov	r26, r0
 734:	0b 01       	movw	r0, r22
 736:	b9 01       	movw	r22, r18
 738:	90 01       	movw	r18, r0
 73a:	0c 01       	movw	r0, r24
 73c:	ca 01       	movw	r24, r20
 73e:	a0 01       	movw	r20, r0
 740:	11 24       	eor	r1, r1
 742:	ff 27       	eor	r31, r31
 744:	59 1b       	sub	r21, r25
 746:	99 f0       	breq	.+38     	; 0x76e <__addsf3x+0x5c>
 748:	59 3f       	cpi	r21, 0xF9	; 249
 74a:	50 f4       	brcc	.+20     	; 0x760 <__addsf3x+0x4e>
 74c:	50 3e       	cpi	r21, 0xE0	; 224
 74e:	68 f1       	brcs	.+90     	; 0x7aa <__addsf3x+0x98>
 750:	1a 16       	cp	r1, r26
 752:	f0 40       	sbci	r31, 0x00	; 0
 754:	a2 2f       	mov	r26, r18
 756:	23 2f       	mov	r18, r19
 758:	34 2f       	mov	r19, r20
 75a:	44 27       	eor	r20, r20
 75c:	58 5f       	subi	r21, 0xF8	; 248
 75e:	f3 cf       	rjmp	.-26     	; 0x746 <__addsf3x+0x34>
 760:	46 95       	lsr	r20
 762:	37 95       	ror	r19
 764:	27 95       	ror	r18
 766:	a7 95       	ror	r26
 768:	f0 40       	sbci	r31, 0x00	; 0
 76a:	53 95       	inc	r21
 76c:	c9 f7       	brne	.-14     	; 0x760 <__addsf3x+0x4e>
 76e:	7e f4       	brtc	.+30     	; 0x78e <__addsf3x+0x7c>
 770:	1f 16       	cp	r1, r31
 772:	ba 0b       	sbc	r27, r26
 774:	62 0b       	sbc	r22, r18
 776:	73 0b       	sbc	r23, r19
 778:	84 0b       	sbc	r24, r20
 77a:	ba f0       	brmi	.+46     	; 0x7aa <__addsf3x+0x98>
 77c:	91 50       	subi	r25, 0x01	; 1
 77e:	a1 f0       	breq	.+40     	; 0x7a8 <__addsf3x+0x96>
 780:	ff 0f       	add	r31, r31
 782:	bb 1f       	adc	r27, r27
 784:	66 1f       	adc	r22, r22
 786:	77 1f       	adc	r23, r23
 788:	88 1f       	adc	r24, r24
 78a:	c2 f7       	brpl	.-16     	; 0x77c <__addsf3x+0x6a>
 78c:	0e c0       	rjmp	.+28     	; 0x7aa <__addsf3x+0x98>
 78e:	ba 0f       	add	r27, r26
 790:	62 1f       	adc	r22, r18
 792:	73 1f       	adc	r23, r19
 794:	84 1f       	adc	r24, r20
 796:	48 f4       	brcc	.+18     	; 0x7aa <__addsf3x+0x98>
 798:	87 95       	ror	r24
 79a:	77 95       	ror	r23
 79c:	67 95       	ror	r22
 79e:	b7 95       	ror	r27
 7a0:	f7 95       	ror	r31
 7a2:	9e 3f       	cpi	r25, 0xFE	; 254
 7a4:	08 f0       	brcs	.+2      	; 0x7a8 <__addsf3x+0x96>
 7a6:	b3 cf       	rjmp	.-154    	; 0x70e <__addsf3+0x1e>
 7a8:	93 95       	inc	r25
 7aa:	88 0f       	add	r24, r24
 7ac:	08 f0       	brcs	.+2      	; 0x7b0 <__addsf3x+0x9e>
 7ae:	99 27       	eor	r25, r25
 7b0:	ee 0f       	add	r30, r30
 7b2:	97 95       	ror	r25
 7b4:	87 95       	ror	r24
 7b6:	08 95       	ret

000007b8 <__fp_inf>:
 7b8:	97 f9       	bld	r25, 7
 7ba:	9f 67       	ori	r25, 0x7F	; 127
 7bc:	80 e8       	ldi	r24, 0x80	; 128
 7be:	70 e0       	ldi	r23, 0x00	; 0
 7c0:	60 e0       	ldi	r22, 0x00	; 0
 7c2:	08 95       	ret

000007c4 <__fp_nan>:
 7c4:	9f ef       	ldi	r25, 0xFF	; 255
 7c6:	80 ec       	ldi	r24, 0xC0	; 192
 7c8:	08 95       	ret

000007ca <__fp_pscA>:
 7ca:	00 24       	eor	r0, r0
 7cc:	0a 94       	dec	r0
 7ce:	16 16       	cp	r1, r22
 7d0:	17 06       	cpc	r1, r23
 7d2:	18 06       	cpc	r1, r24
 7d4:	09 06       	cpc	r0, r25
 7d6:	08 95       	ret

000007d8 <__fp_pscB>:
 7d8:	00 24       	eor	r0, r0
 7da:	0a 94       	dec	r0
 7dc:	12 16       	cp	r1, r18
 7de:	13 06       	cpc	r1, r19
 7e0:	14 06       	cpc	r1, r20
 7e2:	05 06       	cpc	r0, r21
 7e4:	08 95       	ret

000007e6 <__fp_round>:
 7e6:	09 2e       	mov	r0, r25
 7e8:	03 94       	inc	r0
 7ea:	00 0c       	add	r0, r0
 7ec:	11 f4       	brne	.+4      	; 0x7f2 <__fp_round+0xc>
 7ee:	88 23       	and	r24, r24
 7f0:	52 f0       	brmi	.+20     	; 0x806 <__fp_round+0x20>
 7f2:	bb 0f       	add	r27, r27
 7f4:	40 f4       	brcc	.+16     	; 0x806 <__fp_round+0x20>
 7f6:	bf 2b       	or	r27, r31
 7f8:	11 f4       	brne	.+4      	; 0x7fe <__fp_round+0x18>
 7fa:	60 ff       	sbrs	r22, 0
 7fc:	04 c0       	rjmp	.+8      	; 0x806 <__fp_round+0x20>
 7fe:	6f 5f       	subi	r22, 0xFF	; 255
 800:	7f 4f       	sbci	r23, 0xFF	; 255
 802:	8f 4f       	sbci	r24, 0xFF	; 255
 804:	9f 4f       	sbci	r25, 0xFF	; 255
 806:	08 95       	ret

00000808 <__fp_split3>:
 808:	57 fd       	sbrc	r21, 7
 80a:	90 58       	subi	r25, 0x80	; 128
 80c:	44 0f       	add	r20, r20
 80e:	55 1f       	adc	r21, r21
 810:	59 f0       	breq	.+22     	; 0x828 <__fp_splitA+0x10>
 812:	5f 3f       	cpi	r21, 0xFF	; 255
 814:	71 f0       	breq	.+28     	; 0x832 <__fp_splitA+0x1a>
 816:	47 95       	ror	r20

00000818 <__fp_splitA>:
 818:	88 0f       	add	r24, r24
 81a:	97 fb       	bst	r25, 7
 81c:	99 1f       	adc	r25, r25
 81e:	61 f0       	breq	.+24     	; 0x838 <__fp_splitA+0x20>
 820:	9f 3f       	cpi	r25, 0xFF	; 255
 822:	79 f0       	breq	.+30     	; 0x842 <__fp_splitA+0x2a>
 824:	87 95       	ror	r24
 826:	08 95       	ret
 828:	12 16       	cp	r1, r18
 82a:	13 06       	cpc	r1, r19
 82c:	14 06       	cpc	r1, r20
 82e:	55 1f       	adc	r21, r21
 830:	f2 cf       	rjmp	.-28     	; 0x816 <__fp_split3+0xe>
 832:	46 95       	lsr	r20
 834:	f1 df       	rcall	.-30     	; 0x818 <__fp_splitA>
 836:	08 c0       	rjmp	.+16     	; 0x848 <__fp_splitA+0x30>
 838:	16 16       	cp	r1, r22
 83a:	17 06       	cpc	r1, r23
 83c:	18 06       	cpc	r1, r24
 83e:	99 1f       	adc	r25, r25
 840:	f1 cf       	rjmp	.-30     	; 0x824 <__fp_splitA+0xc>
 842:	86 95       	lsr	r24
 844:	71 05       	cpc	r23, r1
 846:	61 05       	cpc	r22, r1
 848:	08 94       	sec
 84a:	08 95       	ret

0000084c <__fp_zero>:
 84c:	e8 94       	clt

0000084e <__fp_szero>:
 84e:	bb 27       	eor	r27, r27
 850:	66 27       	eor	r22, r22
 852:	77 27       	eor	r23, r23
 854:	cb 01       	movw	r24, r22
 856:	97 f9       	bld	r25, 7
 858:	08 95       	ret

0000085a <__gesf2>:
 85a:	03 d0       	rcall	.+6      	; 0x862 <__fp_cmp>
 85c:	08 f4       	brcc	.+2      	; 0x860 <__gesf2+0x6>
 85e:	8f ef       	ldi	r24, 0xFF	; 255
 860:	08 95       	ret

00000862 <__fp_cmp>:
 862:	99 0f       	add	r25, r25
 864:	00 08       	sbc	r0, r0
 866:	55 0f       	add	r21, r21
 868:	aa 0b       	sbc	r26, r26
 86a:	e0 e8       	ldi	r30, 0x80	; 128
 86c:	fe ef       	ldi	r31, 0xFE	; 254
 86e:	16 16       	cp	r1, r22
 870:	17 06       	cpc	r1, r23
 872:	e8 07       	cpc	r30, r24
 874:	f9 07       	cpc	r31, r25
 876:	c0 f0       	brcs	.+48     	; 0x8a8 <__fp_cmp+0x46>
 878:	12 16       	cp	r1, r18
 87a:	13 06       	cpc	r1, r19
 87c:	e4 07       	cpc	r30, r20
 87e:	f5 07       	cpc	r31, r21
 880:	98 f0       	brcs	.+38     	; 0x8a8 <__fp_cmp+0x46>
 882:	62 1b       	sub	r22, r18
 884:	73 0b       	sbc	r23, r19
 886:	84 0b       	sbc	r24, r20
 888:	95 0b       	sbc	r25, r21
 88a:	39 f4       	brne	.+14     	; 0x89a <__fp_cmp+0x38>
 88c:	0a 26       	eor	r0, r26
 88e:	61 f0       	breq	.+24     	; 0x8a8 <__fp_cmp+0x46>
 890:	23 2b       	or	r18, r19
 892:	24 2b       	or	r18, r20
 894:	25 2b       	or	r18, r21
 896:	21 f4       	brne	.+8      	; 0x8a0 <__fp_cmp+0x3e>
 898:	08 95       	ret
 89a:	0a 26       	eor	r0, r26
 89c:	09 f4       	brne	.+2      	; 0x8a0 <__fp_cmp+0x3e>
 89e:	a1 40       	sbci	r26, 0x01	; 1
 8a0:	a6 95       	lsr	r26
 8a2:	8f ef       	ldi	r24, 0xFF	; 255
 8a4:	81 1d       	adc	r24, r1
 8a6:	81 1d       	adc	r24, r1
 8a8:	08 95       	ret

000008aa <__udivmodhi4>:
 8aa:	aa 1b       	sub	r26, r26
 8ac:	bb 1b       	sub	r27, r27
 8ae:	51 e1       	ldi	r21, 0x11	; 17
 8b0:	07 c0       	rjmp	.+14     	; 0x8c0 <__udivmodhi4_ep>

000008b2 <__udivmodhi4_loop>:
 8b2:	aa 1f       	adc	r26, r26
 8b4:	bb 1f       	adc	r27, r27
 8b6:	a6 17       	cp	r26, r22
 8b8:	b7 07       	cpc	r27, r23
 8ba:	10 f0       	brcs	.+4      	; 0x8c0 <__udivmodhi4_ep>
 8bc:	a6 1b       	sub	r26, r22
 8be:	b7 0b       	sbc	r27, r23

000008c0 <__udivmodhi4_ep>:
 8c0:	88 1f       	adc	r24, r24
 8c2:	99 1f       	adc	r25, r25
 8c4:	5a 95       	dec	r21
 8c6:	a9 f7       	brne	.-22     	; 0x8b2 <__udivmodhi4_loop>
 8c8:	80 95       	com	r24
 8ca:	90 95       	com	r25
 8cc:	bc 01       	movw	r22, r24
 8ce:	cd 01       	movw	r24, r26
 8d0:	08 95       	ret

000008d2 <__divmodhi4>:
 8d2:	97 fb       	bst	r25, 7
 8d4:	07 2e       	mov	r0, r23
 8d6:	16 f4       	brtc	.+4      	; 0x8dc <__divmodhi4+0xa>
 8d8:	00 94       	com	r0
 8da:	06 d0       	rcall	.+12     	; 0x8e8 <__divmodhi4_neg1>
 8dc:	77 fd       	sbrc	r23, 7
 8de:	08 d0       	rcall	.+16     	; 0x8f0 <__divmodhi4_neg2>
 8e0:	e4 df       	rcall	.-56     	; 0x8aa <__udivmodhi4>
 8e2:	07 fc       	sbrc	r0, 7
 8e4:	05 d0       	rcall	.+10     	; 0x8f0 <__divmodhi4_neg2>
 8e6:	3e f4       	brtc	.+14     	; 0x8f6 <__divmodhi4_exit>

000008e8 <__divmodhi4_neg1>:
 8e8:	90 95       	com	r25
 8ea:	81 95       	neg	r24
 8ec:	9f 4f       	sbci	r25, 0xFF	; 255
 8ee:	08 95       	ret

000008f0 <__divmodhi4_neg2>:
 8f0:	70 95       	com	r23
 8f2:	61 95       	neg	r22
 8f4:	7f 4f       	sbci	r23, 0xFF	; 255

000008f6 <__divmodhi4_exit>:
 8f6:	08 95       	ret

000008f8 <_exit>:
 8f8:	f8 94       	cli

000008fa <__stop_program>:
 8fa:	ff cf       	rjmp	.-2      	; 0x8fa <__stop_program>
