
GccApplication1.elf:     file format elf32-avr

Sections:
Idx Name          Size      VMA       LMA       File off  Algn
  0 .text         00000a9e  00000000  00000000  00000094  2**1
                  CONTENTS, ALLOC, LOAD, READONLY, CODE
  1 .data         0000000c  00800060  00000a9e  00000b32  2**0
                  CONTENTS, ALLOC, LOAD, DATA
  2 .bss          00000011  0080006c  0080006c  00000b3e  2**0
                  ALLOC
  3 .comment      00000030  00000000  00000000  00000b3e  2**0
                  CONTENTS, READONLY
  4 .note.gnu.avr.deviceinfo 0000003c  00000000  00000000  00000b70  2**2
                  CONTENTS, READONLY
  5 .debug_aranges 000001b0  00000000  00000000  00000bac  2**0
                  CONTENTS, READONLY, DEBUGGING
  6 .debug_info   00003541  00000000  00000000  00000d5c  2**0
                  CONTENTS, READONLY, DEBUGGING
  7 .debug_abbrev 00000e0a  00000000  00000000  0000429d  2**0
                  CONTENTS, READONLY, DEBUGGING
  8 .debug_line   000018d2  00000000  00000000  000050a7  2**0
                  CONTENTS, READONLY, DEBUGGING
  9 .debug_frame  00000400  00000000  00000000  0000697c  2**2
                  CONTENTS, READONLY, DEBUGGING
 10 .debug_str    0000078a  00000000  00000000  00006d7c  2**0
                  CONTENTS, READONLY, DEBUGGING
 11 .debug_loc    0000230e  00000000  00000000  00007506  2**0
                  CONTENTS, READONLY, DEBUGGING
 12 .debug_ranges 000001f8  00000000  00000000  00009814  2**0
                  CONTENTS, READONLY, DEBUGGING

Disassembly of section .text:

00000000 <__vectors>:
   0:	12 c0       	rjmp	.+36     	; 0x26 <__ctors_end>
   2:	a1 c1       	rjmp	.+834    	; 0x346 <__vector_1>
   4:	ef c1       	rjmp	.+990    	; 0x3e4 <__vector_2>
   6:	2a c0       	rjmp	.+84     	; 0x5c <__bad_interrupt>
   8:	93 c1       	rjmp	.+806    	; 0x330 <__vector_4>
   a:	28 c0       	rjmp	.+80     	; 0x5c <__bad_interrupt>
   c:	27 c0       	rjmp	.+78     	; 0x5c <__bad_interrupt>
   e:	26 c0       	rjmp	.+76     	; 0x5c <__bad_interrupt>
  10:	25 c0       	rjmp	.+74     	; 0x5c <__bad_interrupt>
  12:	24 c0       	rjmp	.+72     	; 0x5c <__bad_interrupt>
  14:	23 c0       	rjmp	.+70     	; 0x5c <__bad_interrupt>
  16:	22 c0       	rjmp	.+68     	; 0x5c <__bad_interrupt>
  18:	21 c0       	rjmp	.+66     	; 0x5c <__bad_interrupt>
  1a:	20 c0       	rjmp	.+64     	; 0x5c <__bad_interrupt>
  1c:	1f c0       	rjmp	.+62     	; 0x5c <__bad_interrupt>
  1e:	1e c0       	rjmp	.+60     	; 0x5c <__bad_interrupt>
  20:	1d c0       	rjmp	.+58     	; 0x5c <__bad_interrupt>
  22:	1c c0       	rjmp	.+56     	; 0x5c <__bad_interrupt>
  24:	1b c0       	rjmp	.+54     	; 0x5c <__bad_interrupt>

00000026 <__ctors_end>:
  26:	11 24       	eor	r1, r1
  28:	1f be       	out	0x3f, r1	; 63
  2a:	cf e5       	ldi	r28, 0x5F	; 95
  2c:	d4 e0       	ldi	r29, 0x04	; 4
  2e:	de bf       	out	0x3e, r29	; 62
  30:	cd bf       	out	0x3d, r28	; 61

00000032 <__do_copy_data>:
  32:	10 e0       	ldi	r17, 0x00	; 0
  34:	a0 e6       	ldi	r26, 0x60	; 96
  36:	b0 e0       	ldi	r27, 0x00	; 0
  38:	ee e9       	ldi	r30, 0x9E	; 158
  3a:	fa e0       	ldi	r31, 0x0A	; 10
  3c:	02 c0       	rjmp	.+4      	; 0x42 <__SREG__+0x3>
  3e:	05 90       	lpm	r0, Z+
  40:	0d 92       	st	X+, r0
  42:	ac 36       	cpi	r26, 0x6C	; 108
  44:	b1 07       	cpc	r27, r17
  46:	d9 f7       	brne	.-10     	; 0x3e <__SP_H__>

00000048 <__do_clear_bss>:
  48:	20 e0       	ldi	r18, 0x00	; 0
  4a:	ac e6       	ldi	r26, 0x6C	; 108
  4c:	b0 e0       	ldi	r27, 0x00	; 0
  4e:	01 c0       	rjmp	.+2      	; 0x52 <.do_clear_bss_start>

00000050 <.do_clear_bss_loop>:
  50:	1d 92       	st	X+, r1

00000052 <.do_clear_bss_start>:
  52:	ad 37       	cpi	r26, 0x7D	; 125
  54:	b2 07       	cpc	r27, r18
  56:	e1 f7       	brne	.-8      	; 0x50 <.do_clear_bss_loop>
  58:	1f d2       	rcall	.+1086   	; 0x498 <main>
  5a:	1f c5       	rjmp	.+2622   	; 0xa9a <_exit>

0000005c <__bad_interrupt>:
  5c:	d1 cf       	rjmp	.-94     	; 0x0 <__vectors>

0000005e <select_display_digit>:
	0b11101111
};

uint8_t select_display_digit(uint8_t digit)
{
	if (digit >= 0 && digit < 10)
  5e:	8a 30       	cpi	r24, 0x0A	; 10
  60:	30 f4       	brcc	.+12     	; 0x6e <select_display_digit+0x10>
	{
		return display_digit[digit];
  62:	e8 2f       	mov	r30, r24
  64:	f0 e0       	ldi	r31, 0x00	; 0
  66:	e0 5a       	subi	r30, 0xA0	; 160
  68:	ff 4f       	sbci	r31, 0xFF	; 255
  6a:	80 81       	ld	r24, Z
  6c:	08 95       	ret
	}
	else
	{
		return TM1637_SPAT_BLANK;
  6e:	80 e0       	ldi	r24, 0x00	; 0
	}
}
  70:	08 95       	ret

00000072 <wakeup_display>:

void wakeup_display()
{
	TM1637_turnOnAndSetBrightness(BRIGHTNES);
  72:	81 e0       	ldi	r24, 0x01	; 1
  74:	6b d3       	rcall	.+1750   	; 0x74c <TM1637_turnOnAndSetBrightness>
  76:	08 95       	ret

00000078 <print_time_on_display>:
}

void print_time_on_display(uint8_t hour, uint8_t min)
{
  78:	ff 92       	push	r15
  7a:	0f 93       	push	r16
  7c:	1f 93       	push	r17
  7e:	cf 93       	push	r28
  80:	df 93       	push	r29
  82:	cd b7       	in	r28, 0x3d	; 61
  84:	de b7       	in	r29, 0x3e	; 62
  86:	28 97       	sbiw	r28, 0x08	; 8
  88:	0f b6       	in	r0, 0x3f	; 63
  8a:	f8 94       	cli
  8c:	de bf       	out	0x3e, r29	; 62
  8e:	0f be       	out	0x3f, r0	; 63
  90:	cd bf       	out	0x3d, r28	; 61
	uint8_t d_time[DISP_LEN];
	d_time[0] = hour / DIVIDER;
  92:	9d ec       	ldi	r25, 0xCD	; 205
  94:	89 9f       	mul	r24, r25
  96:	21 2d       	mov	r18, r1
  98:	11 24       	eor	r1, r1
  9a:	26 95       	lsr	r18
  9c:	26 95       	lsr	r18
  9e:	26 95       	lsr	r18
  a0:	29 83       	std	Y+1, r18	; 0x01
	d_time[1] = hour % DIVIDER;
  a2:	22 0f       	add	r18, r18
  a4:	32 2f       	mov	r19, r18
  a6:	33 0f       	add	r19, r19
  a8:	33 0f       	add	r19, r19
  aa:	23 0f       	add	r18, r19
  ac:	82 1b       	sub	r24, r18
  ae:	8a 83       	std	Y+2, r24	; 0x02
	d_time[2] = min / DIVIDER;
  b0:	69 9f       	mul	r22, r25
  b2:	81 2d       	mov	r24, r1
  b4:	11 24       	eor	r1, r1
  b6:	86 95       	lsr	r24
  b8:	86 95       	lsr	r24
  ba:	86 95       	lsr	r24
  bc:	8b 83       	std	Y+3, r24	; 0x03
	d_time[3] = min % DIVIDER;
  be:	88 0f       	add	r24, r24
  c0:	98 2f       	mov	r25, r24
  c2:	99 0f       	add	r25, r25
  c4:	99 0f       	add	r25, r25
  c6:	89 0f       	add	r24, r25
  c8:	68 1b       	sub	r22, r24
  ca:	6c 83       	std	Y+4, r22	; 0x04
	
	uint8_t out_time[TM1637_DIGITS_COUNT];
	for(uint8_t i = 0; i < TM1637_DIGITS_COUNT; i++)
  cc:	f1 2c       	mov	r15, r1
  ce:	12 c0       	rjmp	.+36     	; 0xf4 <print_time_on_display+0x7c>
	{
		out_time[i] = select_display_digit(d_time[i]);
  d0:	0f 2d       	mov	r16, r15
  d2:	10 e0       	ldi	r17, 0x00	; 0
  d4:	e1 e0       	ldi	r30, 0x01	; 1
  d6:	f0 e0       	ldi	r31, 0x00	; 0
  d8:	ec 0f       	add	r30, r28
  da:	fd 1f       	adc	r31, r29
  dc:	e0 0f       	add	r30, r16
  de:	f1 1f       	adc	r31, r17
  e0:	80 81       	ld	r24, Z
  e2:	bd df       	rcall	.-134    	; 0x5e <select_display_digit>
  e4:	e5 e0       	ldi	r30, 0x05	; 5
  e6:	f0 e0       	ldi	r31, 0x00	; 0
  e8:	ec 0f       	add	r30, r28
  ea:	fd 1f       	adc	r31, r29
  ec:	e0 0f       	add	r30, r16
  ee:	f1 1f       	adc	r31, r17
  f0:	80 83       	st	Z, r24
	d_time[1] = hour % DIVIDER;
	d_time[2] = min / DIVIDER;
	d_time[3] = min % DIVIDER;
	
	uint8_t out_time[TM1637_DIGITS_COUNT];
	for(uint8_t i = 0; i < TM1637_DIGITS_COUNT; i++)
  f2:	f3 94       	inc	r15
  f4:	83 e0       	ldi	r24, 0x03	; 3
  f6:	8f 15       	cp	r24, r15
  f8:	58 f7       	brcc	.-42     	; 0xd0 <print_time_on_display+0x58>
	{
		out_time[i] = select_display_digit(d_time[i]);
	}
	TM1637_setSegments(out_time, TM1637_DIGITS_COUNT, START_POS);
  fa:	40 e0       	ldi	r20, 0x00	; 0
  fc:	64 e0       	ldi	r22, 0x04	; 4
  fe:	ce 01       	movw	r24, r28
 100:	05 96       	adiw	r24, 0x05	; 5
 102:	8b d3       	rcall	.+1814   	; 0x81a <TM1637_setSegments>
 104:	28 96       	adiw	r28, 0x08	; 8
 106:	0f b6       	in	r0, 0x3f	; 63
 108:	f8 94       	cli
 10a:	de bf       	out	0x3e, r29	; 62
 10c:	0f be       	out	0x3f, r0	; 63
 10e:	cd bf       	out	0x3d, r28	; 61
 110:	df 91       	pop	r29
 112:	cf 91       	pop	r28
 114:	1f 91       	pop	r17
 116:	0f 91       	pop	r16
 118:	ff 90       	pop	r15
 11a:	08 95       	ret

0000011c <DS1302_Bin8_To_BCD>:
uint8_t DS1302_Bin8_To_BCD(uint8_t data)
{
   uint8_t nibh;
   uint8_t nibl;

   nibh=data/10;
 11c:	2d ec       	ldi	r18, 0xCD	; 205
 11e:	82 9f       	mul	r24, r18
 120:	21 2d       	mov	r18, r1
 122:	11 24       	eor	r1, r1
 124:	26 95       	lsr	r18
 126:	26 95       	lsr	r18
 128:	26 95       	lsr	r18
   nibl=data-(nibh*10);
 12a:	32 2f       	mov	r19, r18
 12c:	33 0f       	add	r19, r19
 12e:	93 2f       	mov	r25, r19
 130:	99 0f       	add	r25, r25
 132:	99 0f       	add	r25, r25
 134:	93 0f       	add	r25, r19
 136:	89 1b       	sub	r24, r25

   return((nibh<<4)|nibl);
 138:	90 e1       	ldi	r25, 0x10	; 16
 13a:	29 9f       	mul	r18, r25
 13c:	90 01       	movw	r18, r0
 13e:	11 24       	eor	r1, r1
}
 140:	82 2b       	or	r24, r18
 142:	08 95       	ret

00000144 <DS1302_BCD_To_Bin8>:

uint8_t DS1302_BCD_To_Bin8(uint8_t data)
{
unsigned char result;		
	result = ((data>>4) & 0b00000111);
 144:	98 2f       	mov	r25, r24
 146:	92 95       	swap	r25
 148:	9f 70       	andi	r25, 0x0F	; 15
 14a:	97 70       	andi	r25, 0x07	; 7
	data &= 0x0F;
 14c:	8f 70       	andi	r24, 0x0F	; 15
	data = data + result*10;
 14e:	99 0f       	add	r25, r25
 150:	29 2f       	mov	r18, r25
 152:	22 0f       	add	r18, r18
 154:	22 0f       	add	r18, r18
 156:	92 0f       	add	r25, r18
	return data;
}
 158:	89 0f       	add	r24, r25
 15a:	08 95       	ret

0000015c <ds1302_write>:

//посылаем команду или байт данных в часы
void ds1302_write(unsigned char cmd)
{
unsigned char i;
	DS1302_DDR_RTC |= (1<<DS1302_E) | (1<<DS1302_SCLK);
 15c:	94 b3       	in	r25, 0x14	; 20
 15e:	93 60       	ori	r25, 0x03	; 3
 160:	94 bb       	out	0x14, r25	; 20
	DS1302_PORT_RTC |= (1<<DS1302_E);//E=1
 162:	95 b3       	in	r25, 0x15	; 21
 164:	91 60       	ori	r25, 0x01	; 1
 166:	95 bb       	out	0x15, r25	; 21
	#else
		//round up by default
		__ticks_dc = (uint32_t)(ceil(fabs(__tmp)));
	#endif

	__builtin_avr_delay_cycles(__ticks_dc);
 168:	00 00       	nop
	_delay_us(1);
	DS1302_DDR_RTC |= (1<<DS1302_IO);//выход
 16a:	94 b3       	in	r25, 0x14	; 20
 16c:	94 60       	ori	r25, 0x04	; 4
 16e:	94 bb       	out	0x14, r25	; 20
	for(i=0; i<8; i++)
 170:	90 e0       	ldi	r25, 0x00	; 0
 172:	21 c0       	rjmp	.+66     	; 0x1b6 <ds1302_write+0x5a>
	{
		if((cmd&(1<<i)) == 1<<i)
 174:	21 e0       	ldi	r18, 0x01	; 1
 176:	30 e0       	ldi	r19, 0x00	; 0
 178:	09 2e       	mov	r0, r25
 17a:	02 c0       	rjmp	.+4      	; 0x180 <ds1302_write+0x24>
 17c:	22 0f       	add	r18, r18
 17e:	33 1f       	adc	r19, r19
 180:	0a 94       	dec	r0
 182:	e2 f7       	brpl	.-8      	; 0x17c <ds1302_write+0x20>
 184:	48 2f       	mov	r20, r24
 186:	50 e0       	ldi	r21, 0x00	; 0
 188:	42 23       	and	r20, r18
 18a:	53 23       	and	r21, r19
 18c:	24 17       	cp	r18, r20
 18e:	35 07       	cpc	r19, r21
 190:	21 f4       	brne	.+8      	; 0x19a <ds1302_write+0x3e>
		{
			DS1302_PORT_RTC |= (1<<DS1302_IO);
 192:	25 b3       	in	r18, 0x15	; 21
 194:	24 60       	ori	r18, 0x04	; 4
 196:	25 bb       	out	0x15, r18	; 21
 198:	03 c0       	rjmp	.+6      	; 0x1a0 <ds1302_write+0x44>
		}
		else
		{
			DS1302_PORT_RTC &= ~(1<<DS1302_IO);
 19a:	25 b3       	in	r18, 0x15	; 21
 19c:	2b 7f       	andi	r18, 0xFB	; 251
 19e:	25 bb       	out	0x15, r18	; 21
		}
		DS1302_PORT_RTC |= (1<<DS1302_SCLK);
 1a0:	25 b3       	in	r18, 0x15	; 21
 1a2:	22 60       	ori	r18, 0x02	; 2
 1a4:	25 bb       	out	0x15, r18	; 21
 1a6:	00 00       	nop
		_delay_us(1);
		DS1302_PORT_RTC &= ~(1<<DS1302_IO);
 1a8:	25 b3       	in	r18, 0x15	; 21
 1aa:	2b 7f       	andi	r18, 0xFB	; 251
 1ac:	25 bb       	out	0x15, r18	; 21
		DS1302_PORT_RTC &= ~(1<<DS1302_SCLK);
 1ae:	25 b3       	in	r18, 0x15	; 21
 1b0:	2d 7f       	andi	r18, 0xFD	; 253
 1b2:	25 bb       	out	0x15, r18	; 21
unsigned char i;
	DS1302_DDR_RTC |= (1<<DS1302_E) | (1<<DS1302_SCLK);
	DS1302_PORT_RTC |= (1<<DS1302_E);//E=1
	_delay_us(1);
	DS1302_DDR_RTC |= (1<<DS1302_IO);//выход
	for(i=0; i<8; i++)
 1b4:	9f 5f       	subi	r25, 0xFF	; 255
 1b6:	98 30       	cpi	r25, 0x08	; 8
 1b8:	e8 f2       	brcs	.-70     	; 0x174 <ds1302_write+0x18>
		DS1302_PORT_RTC |= (1<<DS1302_SCLK);
		_delay_us(1);
		DS1302_PORT_RTC &= ~(1<<DS1302_IO);
		DS1302_PORT_RTC &= ~(1<<DS1302_SCLK);
	} 
}
 1ba:	08 95       	ret

000001bc <ds1302_end_write_data>:
//вызываем после записи байта данных в часы
void ds1302_end_write_data()
{
	DS1302_PORT_RTC &= ~(1<<DS1302_E);
 1bc:	85 b3       	in	r24, 0x15	; 21
 1be:	8e 7f       	andi	r24, 0xFE	; 254
 1c0:	85 bb       	out	0x15, r24	; 21
 1c2:	08 95       	ret

000001c4 <ds1302_read>:
unsigned char ds1302_read()
{
unsigned char readbyte;
unsigned char i;
	readbyte=0;
	DS1302_DDR_RTC &= ~(1<<DS1302_IO);
 1c4:	84 b3       	in	r24, 0x14	; 20
 1c6:	8b 7f       	andi	r24, 0xFB	; 251
 1c8:	84 bb       	out	0x14, r24	; 20
	for(i=0;i<8;i++)
 1ca:	90 e0       	ldi	r25, 0x00	; 0

unsigned char ds1302_read()
{
unsigned char readbyte;
unsigned char i;
	readbyte=0;
 1cc:	80 e0       	ldi	r24, 0x00	; 0
	DS1302_DDR_RTC &= ~(1<<DS1302_IO);
	for(i=0;i<8;i++)
 1ce:	1f c0       	rjmp	.+62     	; 0x20e <__EEPROM_REGION_LENGTH__+0xe>
	{
		DS1302_PORT_RTC |= 1<<DS1302_SCLK;
 1d0:	25 b3       	in	r18, 0x15	; 21
 1d2:	22 60       	ori	r18, 0x02	; 2
 1d4:	25 bb       	out	0x15, r18	; 21
		if((DS1302_PIN_RTC & (1<<DS1302_IO))==0)
 1d6:	9a 99       	sbic	0x13, 2	; 19
 1d8:	0b c0       	rjmp	.+22     	; 0x1f0 <ds1302_read+0x2c>
		{
			readbyte &= ~(1<<i);
 1da:	21 e0       	ldi	r18, 0x01	; 1
 1dc:	30 e0       	ldi	r19, 0x00	; 0
 1de:	09 2e       	mov	r0, r25
 1e0:	02 c0       	rjmp	.+4      	; 0x1e6 <ds1302_read+0x22>
 1e2:	22 0f       	add	r18, r18
 1e4:	33 1f       	adc	r19, r19
 1e6:	0a 94       	dec	r0
 1e8:	e2 f7       	brpl	.-8      	; 0x1e2 <ds1302_read+0x1e>
 1ea:	20 95       	com	r18
 1ec:	82 23       	and	r24, r18
 1ee:	09 c0       	rjmp	.+18     	; 0x202 <__EEPROM_REGION_LENGTH__+0x2>
		}
		else
		{
			readbyte |= 1<<i;
 1f0:	21 e0       	ldi	r18, 0x01	; 1
 1f2:	30 e0       	ldi	r19, 0x00	; 0
 1f4:	09 2e       	mov	r0, r25
 1f6:	02 c0       	rjmp	.+4      	; 0x1fc <ds1302_read+0x38>
 1f8:	22 0f       	add	r18, r18
 1fa:	33 1f       	adc	r19, r19
 1fc:	0a 94       	dec	r0
 1fe:	e2 f7       	brpl	.-8      	; 0x1f8 <ds1302_read+0x34>
 200:	82 2b       	or	r24, r18
 202:	00 00       	nop
		}
		_delay_us(1);
		DS1302_PORT_RTC &= ~(1<<DS1302_SCLK);
 204:	25 b3       	in	r18, 0x15	; 21
 206:	2d 7f       	andi	r18, 0xFD	; 253
 208:	25 bb       	out	0x15, r18	; 21
 20a:	00 00       	nop
{
unsigned char readbyte;
unsigned char i;
	readbyte=0;
	DS1302_DDR_RTC &= ~(1<<DS1302_IO);
	for(i=0;i<8;i++)
 20c:	9f 5f       	subi	r25, 0xFF	; 255
 20e:	98 30       	cpi	r25, 0x08	; 8
 210:	f8 f2       	brcs	.-66     	; 0x1d0 <ds1302_read+0xc>
		}
		_delay_us(1);
		DS1302_PORT_RTC &= ~(1<<DS1302_SCLK);
		_delay_us(1);
	}
	DS1302_PORT_RTC &= ~(1<<DS1302_E);
 212:	95 b3       	in	r25, 0x15	; 21
 214:	9e 7f       	andi	r25, 0xFE	; 254
 216:	95 bb       	out	0x15, r25	; 21
 218:	00 00       	nop
	_delay_us(1);
	return readbyte;
}
 21a:	08 95       	ret

0000021c <DS1302_ReadDateTime>:

void DS1302_ReadDateTime() {
 21c:	cf 93       	push	r28
 21e:	df 93       	push	r29
	//read seconds
	ds1302_write(0x81);
 220:	81 e8       	ldi	r24, 0x81	; 129
 222:	9c df       	rcall	.-200    	; 0x15c <ds1302_write>
	DateTime.Sec = DS1302_BCD_To_Bin8(ds1302_read());
 224:	cf df       	rcall	.-98     	; 0x1c4 <ds1302_read>
 226:	8e df       	rcall	.-228    	; 0x144 <DS1302_BCD_To_Bin8>
 228:	c4 e7       	ldi	r28, 0x74	; 116
 22a:	d0 e0       	ldi	r29, 0x00	; 0
 22c:	88 83       	st	Y, r24
	//read minutes
	ds1302_write(0x83);
 22e:	83 e8       	ldi	r24, 0x83	; 131
 230:	95 df       	rcall	.-214    	; 0x15c <ds1302_write>
	DateTime.Min = DS1302_BCD_To_Bin8(ds1302_read());
 232:	c8 df       	rcall	.-112    	; 0x1c4 <ds1302_read>
 234:	87 df       	rcall	.-242    	; 0x144 <DS1302_BCD_To_Bin8>
 236:	89 83       	std	Y+1, r24	; 0x01
	//read hour
	ds1302_write(0x85);
 238:	85 e8       	ldi	r24, 0x85	; 133
 23a:	90 df       	rcall	.-224    	; 0x15c <ds1302_write>
	DateTime.Hour = ds1302_read();
 23c:	c3 df       	rcall	.-122    	; 0x1c4 <ds1302_read>
	DateTime.AMPM = (DateTime.Hour & 0b00100000);
 23e:	98 2f       	mov	r25, r24
 240:	90 72       	andi	r25, 0x20	; 32
 242:	9f 83       	std	Y+7, r25	; 0x07
	DateTime.H12_24 = (DateTime.Hour & 0b10000000);
 244:	98 2f       	mov	r25, r24
 246:	90 78       	andi	r25, 0x80	; 128
 248:	98 87       	std	Y+8, r25	; 0x08
	if (DateTime.H12_24 == H12) {
 24a:	90 38       	cpi	r25, 0x80	; 128
 24c:	21 f4       	brne	.+8      	; 0x256 <DS1302_ReadDateTime+0x3a>
		DateTime.Hour = DateTime.Hour & 0b00011111;
 24e:	8f 71       	andi	r24, 0x1F	; 31
 250:	80 93 76 00 	sts	0x0076, r24	; 0x800076 <DateTime+0x2>
 254:	03 c0       	rjmp	.+6      	; 0x25c <DS1302_ReadDateTime+0x40>
	}
	else {
		DateTime.Hour = DateTime.Hour & 0b00111111;
 256:	8f 73       	andi	r24, 0x3F	; 63
 258:	80 93 76 00 	sts	0x0076, r24	; 0x800076 <DateTime+0x2>
	}
	DateTime.Hour = DS1302_BCD_To_Bin8(DateTime.Hour);
 25c:	c4 e7       	ldi	r28, 0x74	; 116
 25e:	d0 e0       	ldi	r29, 0x00	; 0
 260:	8a 81       	ldd	r24, Y+2	; 0x02
 262:	70 df       	rcall	.-288    	; 0x144 <DS1302_BCD_To_Bin8>
 264:	8a 83       	std	Y+2, r24	; 0x02
	//read day
	ds1302_write(0x87);
 266:	87 e8       	ldi	r24, 0x87	; 135
 268:	79 df       	rcall	.-270    	; 0x15c <ds1302_write>
	DateTime.Day = DS1302_BCD_To_Bin8(ds1302_read());
 26a:	ac df       	rcall	.-168    	; 0x1c4 <ds1302_read>
 26c:	6b df       	rcall	.-298    	; 0x144 <DS1302_BCD_To_Bin8>
 26e:	8c 83       	std	Y+4, r24	; 0x04
	//read month
	ds1302_write(0x89);
 270:	89 e8       	ldi	r24, 0x89	; 137
 272:	74 df       	rcall	.-280    	; 0x15c <ds1302_write>
	DateTime.Month = DS1302_BCD_To_Bin8(ds1302_read());
 274:	a7 df       	rcall	.-178    	; 0x1c4 <ds1302_read>
 276:	66 df       	rcall	.-308    	; 0x144 <DS1302_BCD_To_Bin8>
 278:	8b 83       	std	Y+3, r24	; 0x03
	//read weekday
	ds1302_write(0x8B);
 27a:	8b e8       	ldi	r24, 0x8B	; 139
 27c:	6f df       	rcall	.-290    	; 0x15c <ds1302_write>
	DateTime.WeekDay=ds1302_read();
 27e:	a2 df       	rcall	.-188    	; 0x1c4 <ds1302_read>
 280:	8e 83       	std	Y+6, r24	; 0x06
	//read year
	ds1302_write(0x8D);
 282:	8d e8       	ldi	r24, 0x8D	; 141
 284:	6b df       	rcall	.-298    	; 0x15c <ds1302_write>
	DateTime.Year = DS1302_BCD_To_Bin8(ds1302_read());
 286:	9e df       	rcall	.-196    	; 0x1c4 <ds1302_read>
 288:	5d df       	rcall	.-326    	; 0x144 <DS1302_BCD_To_Bin8>
 28a:	8d 83       	std	Y+5, r24	; 0x05
}
 28c:	df 91       	pop	r29
 28e:	cf 91       	pop	r28
 290:	08 95       	ret

00000292 <DS1302_WriteDateTime>:

void DS1302_WriteDateTime() {
 292:	1f 93       	push	r17
 294:	cf 93       	push	r28
 296:	df 93       	push	r29
uint8_t tmp;
	//set seconds
	ds1302_write(0x80);
 298:	80 e8       	ldi	r24, 0x80	; 128
 29a:	60 df       	rcall	.-320    	; 0x15c <ds1302_write>
	ds1302_write(DS1302_Bin8_To_BCD(DateTime.Sec));
 29c:	c4 e7       	ldi	r28, 0x74	; 116
 29e:	d0 e0       	ldi	r29, 0x00	; 0
 2a0:	88 81       	ld	r24, Y
 2a2:	3c df       	rcall	.-392    	; 0x11c <DS1302_Bin8_To_BCD>
 2a4:	5b df       	rcall	.-330    	; 0x15c <ds1302_write>
	ds1302_end_write_data();
 2a6:	8a df       	rcall	.-236    	; 0x1bc <ds1302_end_write_data>
	//set minutes
	ds1302_write(0x82);
 2a8:	82 e8       	ldi	r24, 0x82	; 130
 2aa:	58 df       	rcall	.-336    	; 0x15c <ds1302_write>
	ds1302_write(DS1302_Bin8_To_BCD(DateTime.Min));
 2ac:	89 81       	ldd	r24, Y+1	; 0x01
 2ae:	36 df       	rcall	.-404    	; 0x11c <DS1302_Bin8_To_BCD>
 2b0:	55 df       	rcall	.-342    	; 0x15c <ds1302_write>
	ds1302_end_write_data();
 2b2:	84 df       	rcall	.-248    	; 0x1bc <ds1302_end_write_data>
	//set hour	
	tmp = (DS1302_Bin8_To_BCD(DateTime.Hour) | DateTime.AMPM | DateTime.H12_24);
 2b4:	8a 81       	ldd	r24, Y+2	; 0x02
 2b6:	32 df       	rcall	.-412    	; 0x11c <DS1302_Bin8_To_BCD>
 2b8:	1f 81       	ldd	r17, Y+7	; 0x07
 2ba:	98 85       	ldd	r25, Y+8	; 0x08
 2bc:	81 2b       	or	r24, r17
 2be:	18 2f       	mov	r17, r24
 2c0:	19 2b       	or	r17, r25
	ds1302_write(0x84);
 2c2:	84 e8       	ldi	r24, 0x84	; 132
 2c4:	4b df       	rcall	.-362    	; 0x15c <ds1302_write>
	ds1302_write(tmp);
 2c6:	81 2f       	mov	r24, r17
 2c8:	49 df       	rcall	.-366    	; 0x15c <ds1302_write>
	ds1302_end_write_data();
 2ca:	78 df       	rcall	.-272    	; 0x1bc <ds1302_end_write_data>
	//set dade
	ds1302_write(0x86);
 2cc:	86 e8       	ldi	r24, 0x86	; 134
 2ce:	46 df       	rcall	.-372    	; 0x15c <ds1302_write>
	ds1302_write(DS1302_Bin8_To_BCD(DateTime.Day));
 2d0:	8c 81       	ldd	r24, Y+4	; 0x04
 2d2:	24 df       	rcall	.-440    	; 0x11c <DS1302_Bin8_To_BCD>
 2d4:	43 df       	rcall	.-378    	; 0x15c <ds1302_write>
	ds1302_end_write_data();
 2d6:	72 df       	rcall	.-284    	; 0x1bc <ds1302_end_write_data>
	//set month
	ds1302_write(0x88);
 2d8:	88 e8       	ldi	r24, 0x88	; 136
 2da:	40 df       	rcall	.-384    	; 0x15c <ds1302_write>
	ds1302_write(DS1302_Bin8_To_BCD(DateTime.Month));
 2dc:	8b 81       	ldd	r24, Y+3	; 0x03
 2de:	1e df       	rcall	.-452    	; 0x11c <DS1302_Bin8_To_BCD>
 2e0:	3d df       	rcall	.-390    	; 0x15c <ds1302_write>
	ds1302_end_write_data();
 2e2:	6c df       	rcall	.-296    	; 0x1bc <ds1302_end_write_data>
	//set day (of week)
	ds1302_write(0x8A);
 2e4:	8a e8       	ldi	r24, 0x8A	; 138
 2e6:	3a df       	rcall	.-396    	; 0x15c <ds1302_write>
	ds1302_write(DateTime.WeekDay);
 2e8:	8e 81       	ldd	r24, Y+6	; 0x06
 2ea:	38 df       	rcall	.-400    	; 0x15c <ds1302_write>
	ds1302_end_write_data();
 2ec:	67 df       	rcall	.-306    	; 0x1bc <ds1302_end_write_data>
	//set year
	ds1302_write(0x8C);
 2ee:	8c e8       	ldi	r24, 0x8C	; 140
 2f0:	35 df       	rcall	.-406    	; 0x15c <ds1302_write>
	ds1302_write(DS1302_Bin8_To_BCD(DateTime.Year));
 2f2:	8d 81       	ldd	r24, Y+5	; 0x05
 2f4:	13 df       	rcall	.-474    	; 0x11c <DS1302_Bin8_To_BCD>
 2f6:	32 df       	rcall	.-412    	; 0x15c <ds1302_write>
	ds1302_end_write_data();
 2f8:	61 df       	rcall	.-318    	; 0x1bc <ds1302_end_write_data>
}
 2fa:	df 91       	pop	r29
 2fc:	cf 91       	pop	r28
 2fe:	1f 91       	pop	r17
 300:	08 95       	ret

00000302 <EEPROM_write>:
#include "../main.h"

void EEPROM_write(uint8_t address, uint8_t data)
{
	/* ожидаем завершение процедуры записи */
	while(EECR & (1<<EEWE));
 302:	e1 99       	sbic	0x1c, 1	; 28
 304:	fe cf       	rjmp	.-4      	; 0x302 <EEPROM_write>
	/* записываем адрес в регистр адреса */
	EEAR = address;
 306:	90 e0       	ldi	r25, 0x00	; 0
 308:	9f bb       	out	0x1f, r25	; 31
 30a:	8e bb       	out	0x1e, r24	; 30
	/* записываем данные в регистр данных */
	EEDR = data;
 30c:	6d bb       	out	0x1d, r22	; 29
	/* разрешаем запись в EEPROM */
	EECR |= (1<<EEMWE);
 30e:	8c b3       	in	r24, 0x1c	; 28
 310:	84 60       	ori	r24, 0x04	; 4
 312:	8c bb       	out	0x1c, r24	; 28
	/* производим запись в EEPROM */
	EECR |= (1<<EEWE);
 314:	8c b3       	in	r24, 0x1c	; 28
 316:	82 60       	ori	r24, 0x02	; 2
 318:	8c bb       	out	0x1c, r24	; 28
 31a:	08 95       	ret

0000031c <EEPROM_read>:
}

uint8_t EEPROM_read(uint8_t address)
{
	/* ожидаем завершение процедуры записи */
	while(EECR & (1<<EEWE));
 31c:	e1 99       	sbic	0x1c, 1	; 28
 31e:	fe cf       	rjmp	.-4      	; 0x31c <EEPROM_read>
	/* указываем адрес где лежат нужные данные */
	EEAR = address;
 320:	90 e0       	ldi	r25, 0x00	; 0
 322:	9f bb       	out	0x1f, r25	; 31
 324:	8e bb       	out	0x1e, r24	; 30
	/* получаем данные из EEPROM */
	EECR |= (1<<EERE);
 326:	8c b3       	in	r24, 0x1c	; 28
 328:	81 60       	ori	r24, 0x01	; 1
 32a:	8c bb       	out	0x1c, r24	; 28
	/* */
	return EEDR;
 32c:	8d b3       	in	r24, 0x1d	; 29
 32e:	08 95       	ret

00000330 <__vector_4>:
	}
}

/* отсчет времени */
ISR(TIMER2_OVF_vect)
{
 330:	1f 92       	push	r1
 332:	0f 92       	push	r0
 334:	0f b6       	in	r0, 0x3f	; 63
 336:	0f 92       	push	r0
 338:	11 24       	eor	r1, r1
	TCNT2 = 0;
 33a:	14 bc       	out	0x24, r1	; 36
	interval += STEP;
	PORTB ^= (1 << PB0);
	control_seconds(&seconds, &minutes);
	control_min(&minutes, &hour);
	control_hour(&seconds, &minutes, &hour);*/
}
 33c:	0f 90       	pop	r0
 33e:	0f be       	out	0x3f, r0	; 63
 340:	0f 90       	pop	r0
 342:	1f 90       	pop	r1
 344:	18 95       	reti

00000346 <__vector_1>:

/* выход из сна + метка когда кот ел */
ISR(INT0_vect)
{
 346:	1f 92       	push	r1
 348:	0f 92       	push	r0
 34a:	0f b6       	in	r0, 0x3f	; 63
 34c:	0f 92       	push	r0
 34e:	11 24       	eor	r1, r1
 350:	2f 93       	push	r18
 352:	3f 93       	push	r19
 354:	4f 93       	push	r20
 356:	5f 93       	push	r21
 358:	6f 93       	push	r22
 35a:	7f 93       	push	r23
 35c:	8f 93       	push	r24
 35e:	9f 93       	push	r25
 360:	af 93       	push	r26
 362:	bf 93       	push	r27
 364:	ef 93       	push	r30
 366:	ff 93       	push	r31
 368:	cf 93       	push	r28
 36a:	df 93       	push	r29
 36c:	00 d0       	rcall	.+0      	; 0x36e <__vector_1+0x28>
 36e:	00 d0       	rcall	.+0      	; 0x370 <__vector_1+0x2a>
 370:	cd b7       	in	r28, 0x3d	; 61
 372:	de b7       	in	r29, 0x3e	; 62
	sleep_disable();
 374:	85 b7       	in	r24, 0x35	; 53
 376:	8f 77       	andi	r24, 0x7F	; 127
 378:	85 bf       	out	0x35, r24	; 53
	cat_hour = hour;
 37a:	60 91 6b 00 	lds	r22, 0x006B	; 0x80006b <hour>
 37e:	60 93 6e 00 	sts	0x006E, r22	; 0x80006e <cat_hour>
	cat_minutes = minutes;
 382:	80 91 6a 00 	lds	r24, 0x006A	; 0x80006a <minutes>
 386:	80 93 6d 00 	sts	0x006D, r24	; 0x80006d <cat_minutes>
	EEPROM_write(HOUR_ADDRESS, cat_hour);
 38a:	80 e0       	ldi	r24, 0x00	; 0
 38c:	ba df       	rcall	.-140    	; 0x302 <EEPROM_write>
	EEPROM_write(MIN_ADDRESS, cat_minutes);
 38e:	60 91 6d 00 	lds	r22, 0x006D	; 0x80006d <cat_minutes>
 392:	81 e0       	ldi	r24, 0x01	; 1
 394:	b6 df       	rcall	.-148    	; 0x302 <EEPROM_write>
	wakeup_display();
 396:	6d de       	rcall	.-806    	; 0x72 <wakeup_display>
	TM1637_setSegments(EAT_WORD, DISP_LEN, START_POS);
 398:	89 e7       	ldi	r24, 0x79	; 121
 39a:	89 83       	std	Y+1, r24	; 0x01
 39c:	87 e7       	ldi	r24, 0x77	; 119
 39e:	8a 83       	std	Y+2, r24	; 0x02
 3a0:	88 e7       	ldi	r24, 0x78	; 120
 3a2:	8b 83       	std	Y+3, r24	; 0x03
 3a4:	8f e0       	ldi	r24, 0x0F	; 15
 3a6:	8c 83       	std	Y+4, r24	; 0x04
 3a8:	40 e0       	ldi	r20, 0x00	; 0
 3aa:	64 e0       	ldi	r22, 0x04	; 4
 3ac:	ce 01       	movw	r24, r28
 3ae:	01 96       	adiw	r24, 0x01	; 1
 3b0:	34 d2       	rcall	.+1128   	; 0x81a <TM1637_setSegments>
	interval = 0;
 3b2:	10 92 6c 00 	sts	0x006C, r1	; 0x80006c <__data_end>
}
 3b6:	0f 90       	pop	r0
 3b8:	0f 90       	pop	r0
 3ba:	0f 90       	pop	r0
 3bc:	0f 90       	pop	r0
 3be:	df 91       	pop	r29
 3c0:	cf 91       	pop	r28
 3c2:	ff 91       	pop	r31
 3c4:	ef 91       	pop	r30
 3c6:	bf 91       	pop	r27
 3c8:	af 91       	pop	r26
 3ca:	9f 91       	pop	r25
 3cc:	8f 91       	pop	r24
 3ce:	7f 91       	pop	r23
 3d0:	6f 91       	pop	r22
 3d2:	5f 91       	pop	r21
 3d4:	4f 91       	pop	r20
 3d6:	3f 91       	pop	r19
 3d8:	2f 91       	pop	r18
 3da:	0f 90       	pop	r0
 3dc:	0f be       	out	0x3f, r0	; 63
 3de:	0f 90       	pop	r0
 3e0:	1f 90       	pop	r1
 3e2:	18 95       	reti

000003e4 <__vector_2>:

ISR(INT1_vect)
{
 3e4:	1f 92       	push	r1
 3e6:	0f 92       	push	r0
 3e8:	0f b6       	in	r0, 0x3f	; 63
 3ea:	0f 92       	push	r0
 3ec:	11 24       	eor	r1, r1
 3ee:	2f 93       	push	r18
 3f0:	3f 93       	push	r19
 3f2:	4f 93       	push	r20
 3f4:	5f 93       	push	r21
 3f6:	6f 93       	push	r22
 3f8:	7f 93       	push	r23
 3fa:	8f 93       	push	r24
 3fc:	9f 93       	push	r25
 3fe:	af 93       	push	r26
 400:	bf 93       	push	r27
 402:	ef 93       	push	r30
 404:	ff 93       	push	r31
	sleep_disable();
 406:	85 b7       	in	r24, 0x35	; 53
 408:	8f 77       	andi	r24, 0x7F	; 127
 40a:	85 bf       	out	0x35, r24	; 53

	if (VIEW_BTN_CLICK)
 40c:	87 99       	sbic	0x10, 7	; 16
 40e:	06 c0       	rjmp	.+12     	; 0x41c <__DATA_REGION_LENGTH__+0x1c>
	{
		wakeup_display();
 410:	30 de       	rcall	.-928    	; 0x72 <wakeup_display>
		print_time_on_display(cat_hour, cat_minutes);
 412:	60 91 6d 00 	lds	r22, 0x006D	; 0x80006d <cat_minutes>
 416:	80 91 6e 00 	lds	r24, 0x006E	; 0x80006e <cat_hour>
 41a:	2e de       	rcall	.-932    	; 0x78 <print_time_on_display>
	}
	
	if(MENU_BTN_CLICK)
 41c:	84 99       	sbic	0x10, 4	; 16
 41e:	0e c0       	rjmp	.+28     	; 0x43c <__DATA_REGION_LENGTH__+0x3c>
	{
		wakeup_display();
 420:	28 de       	rcall	.-944    	; 0x72 <wakeup_display>
		event_listener();
 422:	cf d0       	rcall	.+414    	; 0x5c2 <event_listener>
		setup_time(&seconds, &minutes, &hour);
 424:	4b e6       	ldi	r20, 0x6B	; 107
 426:	50 e0       	ldi	r21, 0x00	; 0
 428:	6a e6       	ldi	r22, 0x6A	; 106
 42a:	70 e0       	ldi	r23, 0x00	; 0
 42c:	8f e6       	ldi	r24, 0x6F	; 111
 42e:	90 e0       	ldi	r25, 0x00	; 0
 430:	19 d1       	rcall	.+562    	; 0x664 <setup_time>
		print_time_on_display(hour, minutes);
 432:	60 91 6a 00 	lds	r22, 0x006A	; 0x80006a <minutes>
 436:	80 91 6b 00 	lds	r24, 0x006B	; 0x80006b <hour>
 43a:	1e de       	rcall	.-964    	; 0x78 <print_time_on_display>
	}
	interval = 0;
 43c:	10 92 6c 00 	sts	0x006C, r1	; 0x80006c <__data_end>
}
 440:	ff 91       	pop	r31
 442:	ef 91       	pop	r30
 444:	bf 91       	pop	r27
 446:	af 91       	pop	r26
 448:	9f 91       	pop	r25
 44a:	8f 91       	pop	r24
 44c:	7f 91       	pop	r23
 44e:	6f 91       	pop	r22
 450:	5f 91       	pop	r21
 452:	4f 91       	pop	r20
 454:	3f 91       	pop	r19
 456:	2f 91       	pop	r18
 458:	0f 90       	pop	r0
 45a:	0f be       	out	0x3f, r0	; 63
 45c:	0f 90       	pop	r0
 45e:	1f 90       	pop	r1
 460:	18 95       	reti

00000462 <start_timer2_async>:

/* настройка Timer/Counter2 */
void start_timer2_async()
{
	ASSR |= (1 << AS2); // вклю асинхронный режим
 462:	82 b5       	in	r24, 0x22	; 34
 464:	88 60       	ori	r24, 0x08	; 8
 466:	82 bd       	out	0x22, r24	; 34
	/* чищу регистры таймера от мусора */
	TCCR2 = 0;
 468:	15 bc       	out	0x25, r1	; 37
	OCR2 = 0;
 46a:	13 bc       	out	0x23, r1	; 35
	TCNT2 = 0;
 46c:	14 bc       	out	0x24, r1	; 36
	/* делитель частоты = 128 */
	TCCR2 |= (1 << CS22) | (1 << CS20);
 46e:	85 b5       	in	r24, 0x25	; 37
 470:	85 60       	ori	r24, 0x05	; 5
 472:	85 bd       	out	0x25, r24	; 37
	/* жду сброс флагов для старта в асинхронном режиме */
	while (ASSR != ASSR_REG_REDY);
 474:	82 b5       	in	r24, 0x22	; 34
 476:	88 30       	cpi	r24, 0x08	; 8
 478:	e9 f7       	brne	.-6      	; 0x474 <start_timer2_async+0x12>
	/* чистим флаги прерываний */
	TIFR |= (1 << OCF2) | (1 << TOV2);
 47a:	88 b7       	in	r24, 0x38	; 56
 47c:	80 6c       	ori	r24, 0xC0	; 192
 47e:	88 bf       	out	0x38, r24	; 56
	/* включаю прерывание по переполнению таймера */
	TIMSK |= (1 << TOIE2);
 480:	89 b7       	in	r24, 0x39	; 57
 482:	80 64       	ori	r24, 0x40	; 64
 484:	89 bf       	out	0x39, r24	; 57
 486:	08 95       	ret

00000488 <setup_ext_interrapt>:
}

/* настройка внешних прерываний */
void setup_ext_interrapt()
{
	GICR |= (1 << INT0) | (1 << INT1);
 488:	8b b7       	in	r24, 0x3b	; 59
 48a:	80 6c       	ori	r24, 0xC0	; 192
 48c:	8b bf       	out	0x3b, r24	; 59
	DDRD = 0;
 48e:	11 ba       	out	0x11, r1	; 17
	PORTD |= (1 << INT0_PIN) | (1 << INT1_PIN) | (1 << MENU_BTN) | (1 << UP_BTN) | (1 << DOWN_BTN) | (1 << VIEW_BTN);
 490:	82 b3       	in	r24, 0x12	; 18
 492:	8c 6f       	ori	r24, 0xFC	; 252
 494:	82 bb       	out	0x12, r24	; 18
 496:	08 95       	ret

00000498 <main>:
}

int main(void)
{
 498:	cf 93       	push	r28
 49a:	df 93       	push	r29
 49c:	00 d0       	rcall	.+0      	; 0x49e <main+0x6>
 49e:	00 d0       	rcall	.+0      	; 0x4a0 <main+0x8>
 4a0:	cd b7       	in	r28, 0x3d	; 61
 4a2:	de b7       	in	r29, 0x3e	; 62
	cli();
 4a4:	f8 94       	cli
	ACSR |= (1 << ACD); // ОТКЛЮЧЕНИЕ АЦП
 4a6:	88 b1       	in	r24, 0x08	; 8
 4a8:	80 68       	ori	r24, 0x80	; 128
 4aa:	88 b9       	out	0x08, r24	; 8
	start_timer2_async();
 4ac:	da df       	rcall	.-76     	; 0x462 <start_timer2_async>
	setup_ext_interrapt();
 4ae:	ec df       	rcall	.-40     	; 0x488 <setup_ext_interrapt>
	sei();
 4b0:	78 94       	sei
	
	DDRB |= (1 << PB0);
 4b2:	87 b3       	in	r24, 0x17	; 23
 4b4:	81 60       	ori	r24, 0x01	; 1
 4b6:	87 bb       	out	0x17, r24	; 23
	PORTB |= (1 << PB0);
 4b8:	88 b3       	in	r24, 0x18	; 24
 4ba:	81 60       	ori	r24, 0x01	; 1
 4bc:	88 bb       	out	0x18, r24	; 24
	
	cat_hour = EEPROM_read(HOUR_ADDRESS);
 4be:	80 e0       	ldi	r24, 0x00	; 0
 4c0:	2d df       	rcall	.-422    	; 0x31c <EEPROM_read>
 4c2:	80 93 6e 00 	sts	0x006E, r24	; 0x80006e <cat_hour>
	cat_minutes = EEPROM_read(MIN_ADDRESS);
 4c6:	81 e0       	ldi	r24, 0x01	; 1
 4c8:	29 df       	rcall	.-430    	; 0x31c <EEPROM_read>
 4ca:	80 93 6d 00 	sts	0x006D, r24	; 0x80006d <cat_minutes>
	
	TM1637_init();
 4ce:	d5 d0       	rcall	.+426    	; 0x67a <TM1637_init>
	TM1637_turnOnAndSetBrightness(BRIGHTNES);
 4d0:	81 e0       	ldi	r24, 0x01	; 1
 4d2:	3c d1       	rcall	.+632    	; 0x74c <TM1637_turnOnAndSetBrightness>
	TM1637_setSegments(HI_WORD, DISP_LEN, START_POS);
 4d4:	86 e7       	ldi	r24, 0x76	; 118
 4d6:	89 83       	std	Y+1, r24	; 0x01
 4d8:	8c e5       	ldi	r24, 0x5C	; 92
 4da:	8a 83       	std	Y+2, r24	; 0x02
 4dc:	88 e3       	ldi	r24, 0x38	; 56
 4de:	8b 83       	std	Y+3, r24	; 0x03
 4e0:	87 e7       	ldi	r24, 0x77	; 119
 4e2:	8c 83       	std	Y+4, r24	; 0x04
 4e4:	40 e0       	ldi	r20, 0x00	; 0
 4e6:	64 e0       	ldi	r22, 0x04	; 4
 4e8:	ce 01       	movw	r24, r28
 4ea:	01 96       	adiw	r24, 0x01	; 1
 4ec:	96 d1       	rcall	.+812    	; 0x81a <TM1637_setSegments>
	print_time_on_display(14, 8);
 4ee:	68 e0       	ldi	r22, 0x08	; 8
 4f0:	8e e0       	ldi	r24, 0x0E	; 14
 4f2:	c2 dd       	rcall	.-1148   	; 0x78 <print_time_on_display>
	#else
		//round up by default
		__ticks_dc = (uint32_t)(ceil(fabs(__tmp)));
	#endif

	__builtin_avr_delay_cycles(__ticks_dc);
 4f4:	2f e3       	ldi	r18, 0x3F	; 63
 4f6:	8d e0       	ldi	r24, 0x0D	; 13
 4f8:	93 e0       	ldi	r25, 0x03	; 3
 4fa:	21 50       	subi	r18, 0x01	; 1
 4fc:	80 40       	sbci	r24, 0x00	; 0
 4fe:	90 40       	sbci	r25, 0x00	; 0
 500:	e1 f7       	brne	.-8      	; 0x4fa <main+0x62>
 502:	00 c0       	rjmp	.+0      	; 0x504 <main+0x6c>
 504:	00 00       	nop
	_delay_ms(WAIT1S);
	
	set_sleep_mode(SLEEP_MODE_PWR_SAVE);
 506:	85 b7       	in	r24, 0x35	; 53
 508:	8f 78       	andi	r24, 0x8F	; 143
 50a:	80 63       	ori	r24, 0x30	; 48
 50c:	85 bf       	out	0x35, r24	; 53
	
	// Задаем время и параметры (AM/PM следует задавать только при H12)
	DateTime.Sec = 0;
 50e:	e4 e7       	ldi	r30, 0x74	; 116
 510:	f0 e0       	ldi	r31, 0x00	; 0
 512:	10 82       	st	Z, r1
	DateTime.Min = 34;
 514:	82 e2       	ldi	r24, 0x22	; 34
 516:	81 83       	std	Z+1, r24	; 0x01
	DateTime.Hour = 11;
 518:	8b e0       	ldi	r24, 0x0B	; 11
 51a:	82 83       	std	Z+2, r24	; 0x02
	DateTime.Month = 8;
 51c:	98 e0       	ldi	r25, 0x08	; 8
 51e:	93 83       	std	Z+3, r25	; 0x03
	DateTime.Day = 16;
 520:	90 e1       	ldi	r25, 0x10	; 16
 522:	94 83       	std	Z+4, r25	; 0x04
	DateTime.Year = 11;
 524:	85 83       	std	Z+5, r24	; 0x05
	DateTime.WeekDay = 2;
 526:	82 e0       	ldi	r24, 0x02	; 2
 528:	86 83       	std	Z+6, r24	; 0x06
	DateTime.H12_24 = H24;  //H12/H24
 52a:	10 86       	std	Z+8, r1	; 0x08
	
	// Записываем время в микросхему ds1302
	DS1302_WriteDateTime();
 52c:	b2 de       	rcall	.-668    	; 0x292 <DS1302_WriteDateTime>
	
	while(1)
	{
		DS1302_ReadDateTime();
 52e:	76 de       	rcall	.-788    	; 0x21c <DS1302_ReadDateTime>
		print_time_on_display(DateTime.Hour, DateTime.Min);
 530:	e4 e7       	ldi	r30, 0x74	; 116
 532:	f0 e0       	ldi	r31, 0x00	; 0
 534:	61 81       	ldd	r22, Z+1	; 0x01
 536:	82 81       	ldd	r24, Z+2	; 0x02
 538:	9f dd       	rcall	.-1218   	; 0x78 <print_time_on_display>
 53a:	f9 cf       	rjmp	.-14     	; 0x52e <main+0x96>

0000053c <update_menu>:
 53c:	2f e3       	ldi	r18, 0x3F	; 63
 53e:	8d e0       	ldi	r24, 0x0D	; 13
 540:	93 e0       	ldi	r25, 0x03	; 3
 542:	21 50       	subi	r18, 0x01	; 1
 544:	80 40       	sbci	r24, 0x00	; 0
 546:	90 40       	sbci	r25, 0x00	; 0
 548:	e1 f7       	brne	.-8      	; 0x542 <update_menu+0x6>
 54a:	00 c0       	rjmp	.+0      	; 0x54c <update_menu+0x10>
 54c:	00 00       	nop
uint8_t wait_time = 0;

void update_menu()
{
	_delay_ms(WAIT1S);
	TM1637_clear();
 54e:	0c d2       	rcall	.+1048   	; 0x968 <TM1637_clear>
 550:	08 95       	ret

00000552 <set_time_up>:
}

uint8_t set_time_up(uint8_t val, uint8_t max_val)
{
	uint8_t result;
	if (val < max_val)
 552:	86 17       	cp	r24, r22
 554:	10 f4       	brcc	.+4      	; 0x55a <set_time_up+0x8>
	{
		result = val + 1;
 556:	8f 5f       	subi	r24, 0xFF	; 255
 558:	08 95       	ret
	}
	else
	{
		result = 0;
 55a:	80 e0       	ldi	r24, 0x00	; 0
	}
	return result;
}
 55c:	08 95       	ret

0000055e <set_time_down>:

uint8_t set_time_down(uint8_t val, uint8_t max_val)
{
	uint8_t result;
	if (val > 0)
 55e:	88 23       	and	r24, r24
 560:	11 f0       	breq	.+4      	; 0x566 <set_time_down+0x8>
	{
		result = val - 1;
 562:	6f ef       	ldi	r22, 0xFF	; 255
 564:	68 0f       	add	r22, r24
	else
	{
		result = max_val;
	}	
	return result;
}
 566:	86 2f       	mov	r24, r22
 568:	08 95       	ret

0000056a <tune_hour>:

void tune_hour()
{
	if (UP_BTN_CLICK)
 56a:	85 99       	sbic	0x10, 5	; 16
 56c:	08 c0       	rjmp	.+16     	; 0x57e <tune_hour+0x14>
	{
		wait_time = 0;
 56e:	10 92 70 00 	sts	0x0070, r1	; 0x800070 <wait_time>
		hr = set_time_up(hr, HOUR_OVF);
 572:	67 e1       	ldi	r22, 0x17	; 23
 574:	80 91 72 00 	lds	r24, 0x0072	; 0x800072 <hr>
 578:	ec df       	rcall	.-40     	; 0x552 <set_time_up>
 57a:	80 93 72 00 	sts	0x0072, r24	; 0x800072 <hr>
	}
			
	if (DOWN_BTN_CLICK)
 57e:	86 99       	sbic	0x10, 6	; 16
 580:	08 c0       	rjmp	.+16     	; 0x592 <tune_hour+0x28>
	{
		wait_time = 0;
 582:	10 92 70 00 	sts	0x0070, r1	; 0x800070 <wait_time>
		hr = set_time_down(hr, HOUR_OVF);
 586:	67 e1       	ldi	r22, 0x17	; 23
 588:	80 91 72 00 	lds	r24, 0x0072	; 0x800072 <hr>
 58c:	e8 df       	rcall	.-48     	; 0x55e <set_time_down>
 58e:	80 93 72 00 	sts	0x0072, r24	; 0x800072 <hr>
 592:	08 95       	ret

00000594 <tune_min>:
	}
}

void tune_min()
{
	if (UP_BTN_CLICK)
 594:	85 99       	sbic	0x10, 5	; 16
 596:	09 c0       	rjmp	.+18     	; 0x5aa <tune_min+0x16>
	{
		wait_time = MAX_WAIT_TIME;
 598:	88 e0       	ldi	r24, 0x08	; 8
 59a:	80 93 70 00 	sts	0x0070, r24	; 0x800070 <wait_time>
		min = set_time_up(min, MIN_OVF-1);
 59e:	6b e3       	ldi	r22, 0x3B	; 59
 5a0:	80 91 71 00 	lds	r24, 0x0071	; 0x800071 <min>
 5a4:	d6 df       	rcall	.-84     	; 0x552 <set_time_up>
 5a6:	80 93 71 00 	sts	0x0071, r24	; 0x800071 <min>
	}
			
	if (DOWN_BTN_CLICK)
 5aa:	86 99       	sbic	0x10, 6	; 16
 5ac:	09 c0       	rjmp	.+18     	; 0x5c0 <tune_min+0x2c>
	{
		wait_time = MAX_WAIT_TIME;
 5ae:	88 e0       	ldi	r24, 0x08	; 8
 5b0:	80 93 70 00 	sts	0x0070, r24	; 0x800070 <wait_time>
		min = set_time_down(min, MIN_OVF-1);
 5b4:	6b e3       	ldi	r22, 0x3B	; 59
 5b6:	80 91 71 00 	lds	r24, 0x0071	; 0x800071 <min>
 5ba:	d1 df       	rcall	.-94     	; 0x55e <set_time_down>
 5bc:	80 93 71 00 	sts	0x0071, r24	; 0x800071 <min>
 5c0:	08 95       	ret

000005c2 <event_listener>:
	}
}

void event_listener()
{
 5c2:	cf 93       	push	r28
 5c4:	df 93       	push	r29
 5c6:	cd b7       	in	r28, 0x3d	; 61
 5c8:	de b7       	in	r29, 0x3e	; 62
 5ca:	28 97       	sbiw	r28, 0x08	; 8
 5cc:	0f b6       	in	r0, 0x3f	; 63
 5ce:	f8 94       	cli
 5d0:	de bf       	out	0x3e, r29	; 62
 5d2:	0f be       	out	0x3f, r0	; 63
 5d4:	cd bf       	out	0x3d, r28	; 61
	hr = 0;
 5d6:	10 92 72 00 	sts	0x0072, r1	; 0x800072 <hr>
	min = 0;
 5da:	10 92 71 00 	sts	0x0071, r1	; 0x800071 <min>
	TM1637_setSegments(SET_WORD, DISP_LEN, START_POS);
 5de:	8d e6       	ldi	r24, 0x6D	; 109
 5e0:	8d 83       	std	Y+5, r24	; 0x05
 5e2:	8b e7       	ldi	r24, 0x7B	; 123
 5e4:	8e 83       	std	Y+6, r24	; 0x06
 5e6:	88 e7       	ldi	r24, 0x78	; 120
 5e8:	8f 83       	std	Y+7, r24	; 0x07
 5ea:	88 87       	std	Y+8, r24	; 0x08
 5ec:	40 e0       	ldi	r20, 0x00	; 0
 5ee:	64 e0       	ldi	r22, 0x04	; 4
 5f0:	ce 01       	movw	r24, r28
 5f2:	05 96       	adiw	r24, 0x05	; 5
 5f4:	12 d1       	rcall	.+548    	; 0x81a <TM1637_setSegments>
	update_menu();
 5f6:	a2 df       	rcall	.-188    	; 0x53c <update_menu>
	while(MENU_BTN_CLICK)
 5f8:	1a c0       	rjmp	.+52     	; 0x62e <event_listener+0x6c>
	{
		if (wait_time < MAX_WAIT_TIME)
 5fa:	80 91 70 00 	lds	r24, 0x0070	; 0x800070 <wait_time>
 5fe:	88 30       	cpi	r24, 0x08	; 8
 600:	10 f4       	brcc	.+4      	; 0x606 <event_listener+0x44>
		{
			tune_hour();
 602:	b3 df       	rcall	.-154    	; 0x56a <tune_hour>
 604:	01 c0       	rjmp	.+2      	; 0x608 <event_listener+0x46>
		}
		else
		{
			tune_min();
 606:	c6 df       	rcall	.-116    	; 0x594 <tune_min>
		}
		wait_time++;
 608:	80 91 70 00 	lds	r24, 0x0070	; 0x800070 <wait_time>
 60c:	8f 5f       	subi	r24, 0xFF	; 255
 60e:	80 93 70 00 	sts	0x0070, r24	; 0x800070 <wait_time>
 612:	2f e9       	ldi	r18, 0x9F	; 159
 614:	86 e8       	ldi	r24, 0x86	; 134
 616:	91 e0       	ldi	r25, 0x01	; 1
 618:	21 50       	subi	r18, 0x01	; 1
 61a:	80 40       	sbci	r24, 0x00	; 0
 61c:	90 40       	sbci	r25, 0x00	; 0
 61e:	e1 f7       	brne	.-8      	; 0x618 <event_listener+0x56>
 620:	00 c0       	rjmp	.+0      	; 0x622 <event_listener+0x60>
 622:	00 00       	nop
		_delay_ms(WAIT500MS);
		print_time_on_display(hr,min);
 624:	60 91 71 00 	lds	r22, 0x0071	; 0x800071 <min>
 628:	80 91 72 00 	lds	r24, 0x0072	; 0x800072 <hr>
 62c:	25 dd       	rcall	.-1462   	; 0x78 <print_time_on_display>
{
	hr = 0;
	min = 0;
	TM1637_setSegments(SET_WORD, DISP_LEN, START_POS);
	update_menu();
	while(MENU_BTN_CLICK)
 62e:	84 9b       	sbis	0x10, 4	; 16
 630:	e4 cf       	rjmp	.-56     	; 0x5fa <event_listener+0x38>
		}
		wait_time++;
		_delay_ms(WAIT500MS);
		print_time_on_display(hr,min);
	}
	wait_time = 0;
 632:	10 92 70 00 	sts	0x0070, r1	; 0x800070 <wait_time>
	TM1637_setSegments(DONE_WORD, DISP_LEN, START_POS);
 636:	8e e5       	ldi	r24, 0x5E	; 94
 638:	89 83       	std	Y+1, r24	; 0x01
 63a:	8c e5       	ldi	r24, 0x5C	; 92
 63c:	8a 83       	std	Y+2, r24	; 0x02
 63e:	84 e5       	ldi	r24, 0x54	; 84
 640:	8b 83       	std	Y+3, r24	; 0x03
 642:	89 e7       	ldi	r24, 0x79	; 121
 644:	8c 83       	std	Y+4, r24	; 0x04
 646:	40 e0       	ldi	r20, 0x00	; 0
 648:	64 e0       	ldi	r22, 0x04	; 4
 64a:	ce 01       	movw	r24, r28
 64c:	01 96       	adiw	r24, 0x01	; 1
 64e:	e5 d0       	rcall	.+458    	; 0x81a <TM1637_setSegments>
	update_menu();
 650:	75 df       	rcall	.-278    	; 0x53c <update_menu>
}
 652:	28 96       	adiw	r28, 0x08	; 8
 654:	0f b6       	in	r0, 0x3f	; 63
 656:	f8 94       	cli
 658:	de bf       	out	0x3e, r29	; 62
 65a:	0f be       	out	0x3f, r0	; 63
 65c:	cd bf       	out	0x3d, r28	; 61
 65e:	df 91       	pop	r29
 660:	cf 91       	pop	r28
 662:	08 95       	ret

00000664 <setup_time>:

void setup_time(uint8_t* seconds, uint8_t* minutes, uint8_t* hour)
{
	*seconds = 0;
 664:	fc 01       	movw	r30, r24
 666:	10 82       	st	Z, r1
	*minutes = min;
 668:	80 91 71 00 	lds	r24, 0x0071	; 0x800071 <min>
 66c:	fb 01       	movw	r30, r22
 66e:	80 83       	st	Z, r24
	*hour = hr;
 670:	80 91 72 00 	lds	r24, 0x0072	; 0x800072 <hr>
 674:	fa 01       	movw	r30, r20
 676:	80 83       	st	Z, r24
 678:	08 95       	ret

0000067a <TM1637_init>:
	#else
		//round up by default
		__ticks_dc = (uint32_t)(ceil(fabs(__tmp)));
	#endif

	__builtin_avr_delay_cycles(__ticks_dc);
 67a:	84 b3       	in	r24, 0x14	; 20
 67c:	8f 7e       	andi	r24, 0xEF	; 239
 67e:	84 bb       	out	0x14, r24	; 20
 680:	84 b3       	in	r24, 0x14	; 20
 682:	8f 7d       	andi	r24, 0xDF	; 223
 684:	84 bb       	out	0x14, r24	; 20
 686:	85 b3       	in	r24, 0x15	; 21
 688:	8f 7c       	andi	r24, 0xCF	; 207
 68a:	85 bb       	out	0x15, r24	; 21
 68c:	84 b3       	in	r24, 0x14	; 20
 68e:	80 61       	ori	r24, 0x10	; 16
 690:	84 bb       	out	0x14, r24	; 20
 692:	82 e4       	ldi	r24, 0x42	; 66
 694:	8a 95       	dec	r24
 696:	f1 f7       	brne	.-4      	; 0x694 <TM1637_init+0x1a>
 698:	00 c0       	rjmp	.+0      	; 0x69a <TM1637_init+0x20>
 69a:	90 e0       	ldi	r25, 0x00	; 0
 69c:	20 e4       	ldi	r18, 0x40	; 64
 69e:	1d c0       	rjmp	.+58     	; 0x6da <TM1637_init+0x60>
 6a0:	84 b3       	in	r24, 0x14	; 20
 6a2:	80 62       	ori	r24, 0x20	; 32
 6a4:	84 bb       	out	0x14, r24	; 20
 6a6:	81 e2       	ldi	r24, 0x21	; 33
 6a8:	8a 95       	dec	r24
 6aa:	f1 f7       	brne	.-4      	; 0x6a8 <TM1637_init+0x2e>
 6ac:	00 00       	nop
 6ae:	20 ff       	sbrs	r18, 0
 6b0:	04 c0       	rjmp	.+8      	; 0x6ba <TM1637_init+0x40>
 6b2:	84 b3       	in	r24, 0x14	; 20
 6b4:	8f 7e       	andi	r24, 0xEF	; 239
 6b6:	84 bb       	out	0x14, r24	; 20
 6b8:	03 c0       	rjmp	.+6      	; 0x6c0 <TM1637_init+0x46>
 6ba:	84 b3       	in	r24, 0x14	; 20
 6bc:	80 61       	ori	r24, 0x10	; 16
 6be:	84 bb       	out	0x14, r24	; 20
 6c0:	81 e2       	ldi	r24, 0x21	; 33
 6c2:	8a 95       	dec	r24
 6c4:	f1 f7       	brne	.-4      	; 0x6c2 <TM1637_init+0x48>
 6c6:	00 00       	nop
 6c8:	84 b3       	in	r24, 0x14	; 20
 6ca:	8f 7d       	andi	r24, 0xDF	; 223
 6cc:	84 bb       	out	0x14, r24	; 20
 6ce:	82 e4       	ldi	r24, 0x42	; 66
 6d0:	8a 95       	dec	r24
 6d2:	f1 f7       	brne	.-4      	; 0x6d0 <TM1637_init+0x56>
 6d4:	00 c0       	rjmp	.+0      	; 0x6d6 <TM1637_init+0x5c>
 6d6:	26 95       	lsr	r18
 6d8:	9f 5f       	subi	r25, 0xFF	; 255
 6da:	98 30       	cpi	r25, 0x08	; 8
 6dc:	08 f3       	brcs	.-62     	; 0x6a0 <TM1637_init+0x26>
 6de:	84 b3       	in	r24, 0x14	; 20
 6e0:	80 62       	ori	r24, 0x20	; 32
 6e2:	84 bb       	out	0x14, r24	; 20
 6e4:	84 b3       	in	r24, 0x14	; 20
 6e6:	8f 7e       	andi	r24, 0xEF	; 239
 6e8:	84 bb       	out	0x14, r24	; 20
 6ea:	82 e4       	ldi	r24, 0x42	; 66
 6ec:	8a 95       	dec	r24
 6ee:	f1 f7       	brne	.-4      	; 0x6ec <TM1637_init+0x72>
 6f0:	00 c0       	rjmp	.+0      	; 0x6f2 <TM1637_init+0x78>
 6f2:	84 b3       	in	r24, 0x14	; 20
 6f4:	8f 7d       	andi	r24, 0xDF	; 223
 6f6:	84 bb       	out	0x14, r24	; 20
 6f8:	81 e2       	ldi	r24, 0x21	; 33
 6fa:	8a 95       	dec	r24
 6fc:	f1 f7       	brne	.-4      	; 0x6fa <TM1637_init+0x80>
 6fe:	00 00       	nop
 700:	9c 99       	sbic	0x13, 4	; 19
 702:	03 c0       	rjmp	.+6      	; 0x70a <TM1637_init+0x90>
 704:	84 b3       	in	r24, 0x14	; 20
 706:	80 61       	ori	r24, 0x10	; 16
 708:	84 bb       	out	0x14, r24	; 20
 70a:	81 e2       	ldi	r24, 0x21	; 33
 70c:	8a 95       	dec	r24
 70e:	f1 f7       	brne	.-4      	; 0x70c <TM1637_init+0x92>
 710:	00 00       	nop
 712:	84 b3       	in	r24, 0x14	; 20
 714:	80 62       	ori	r24, 0x20	; 32
 716:	84 bb       	out	0x14, r24	; 20
 718:	81 e2       	ldi	r24, 0x21	; 33
 71a:	8a 95       	dec	r24
 71c:	f1 f7       	brne	.-4      	; 0x71a <TM1637_init+0xa0>
 71e:	00 00       	nop
 720:	84 b3       	in	r24, 0x14	; 20
 722:	80 61       	ori	r24, 0x10	; 16
 724:	84 bb       	out	0x14, r24	; 20
 726:	81 e2       	ldi	r24, 0x21	; 33
 728:	8a 95       	dec	r24
 72a:	f1 f7       	brne	.-4      	; 0x728 <TM1637_init+0xae>
 72c:	00 00       	nop
 72e:	84 b3       	in	r24, 0x14	; 20
 730:	8f 7d       	andi	r24, 0xDF	; 223
 732:	84 bb       	out	0x14, r24	; 20
 734:	82 e4       	ldi	r24, 0x42	; 66
 736:	8a 95       	dec	r24
 738:	f1 f7       	brne	.-4      	; 0x736 <TM1637_init+0xbc>
 73a:	00 c0       	rjmp	.+0      	; 0x73c <TM1637_init+0xc2>
 73c:	84 b3       	in	r24, 0x14	; 20
 73e:	8f 7e       	andi	r24, 0xEF	; 239
 740:	84 bb       	out	0x14, r24	; 20
 742:	82 e4       	ldi	r24, 0x42	; 66
 744:	8a 95       	dec	r24
 746:	f1 f7       	brne	.-4      	; 0x744 <TM1637_init+0xca>
 748:	00 c0       	rjmp	.+0      	; 0x74a <TM1637_init+0xd0>
 74a:	08 95       	ret

0000074c <TM1637_turnOnAndSetBrightness>:
 74c:	87 70       	andi	r24, 0x07	; 7
 74e:	88 60       	ori	r24, 0x08	; 8
 750:	80 93 73 00 	sts	0x0073, r24	; 0x800073 <TM1637_brightness_reg>
 754:	84 b3       	in	r24, 0x14	; 20
 756:	80 61       	ori	r24, 0x10	; 16
 758:	84 bb       	out	0x14, r24	; 20
 75a:	82 e4       	ldi	r24, 0x42	; 66
 75c:	8a 95       	dec	r24
 75e:	f1 f7       	brne	.-4      	; 0x75c <TM1637_turnOnAndSetBrightness+0x10>
 760:	00 c0       	rjmp	.+0      	; 0x762 <TM1637_turnOnAndSetBrightness+0x16>
 762:	90 91 73 00 	lds	r25, 0x0073	; 0x800073 <TM1637_brightness_reg>
 766:	9f 70       	andi	r25, 0x0F	; 15
 768:	90 68       	ori	r25, 0x80	; 128
 76a:	20 e0       	ldi	r18, 0x00	; 0
 76c:	1d c0       	rjmp	.+58     	; 0x7a8 <TM1637_turnOnAndSetBrightness+0x5c>
 76e:	84 b3       	in	r24, 0x14	; 20
 770:	80 62       	ori	r24, 0x20	; 32
 772:	84 bb       	out	0x14, r24	; 20
 774:	81 e2       	ldi	r24, 0x21	; 33
 776:	8a 95       	dec	r24
 778:	f1 f7       	brne	.-4      	; 0x776 <TM1637_turnOnAndSetBrightness+0x2a>
 77a:	00 00       	nop
 77c:	90 ff       	sbrs	r25, 0
 77e:	04 c0       	rjmp	.+8      	; 0x788 <TM1637_turnOnAndSetBrightness+0x3c>
 780:	84 b3       	in	r24, 0x14	; 20
 782:	8f 7e       	andi	r24, 0xEF	; 239
 784:	84 bb       	out	0x14, r24	; 20
 786:	03 c0       	rjmp	.+6      	; 0x78e <TM1637_turnOnAndSetBrightness+0x42>
 788:	84 b3       	in	r24, 0x14	; 20
 78a:	80 61       	ori	r24, 0x10	; 16
 78c:	84 bb       	out	0x14, r24	; 20
 78e:	81 e2       	ldi	r24, 0x21	; 33
 790:	8a 95       	dec	r24
 792:	f1 f7       	brne	.-4      	; 0x790 <TM1637_turnOnAndSetBrightness+0x44>
 794:	00 00       	nop
 796:	84 b3       	in	r24, 0x14	; 20
 798:	8f 7d       	andi	r24, 0xDF	; 223
 79a:	84 bb       	out	0x14, r24	; 20
 79c:	82 e4       	ldi	r24, 0x42	; 66
 79e:	8a 95       	dec	r24
 7a0:	f1 f7       	brne	.-4      	; 0x79e <TM1637_turnOnAndSetBrightness+0x52>
 7a2:	00 c0       	rjmp	.+0      	; 0x7a4 <TM1637_turnOnAndSetBrightness+0x58>
 7a4:	96 95       	lsr	r25
 7a6:	2f 5f       	subi	r18, 0xFF	; 255
 7a8:	28 30       	cpi	r18, 0x08	; 8
 7aa:	08 f3       	brcs	.-62     	; 0x76e <TM1637_turnOnAndSetBrightness+0x22>
 7ac:	84 b3       	in	r24, 0x14	; 20
 7ae:	80 62       	ori	r24, 0x20	; 32
 7b0:	84 bb       	out	0x14, r24	; 20
 7b2:	84 b3       	in	r24, 0x14	; 20
 7b4:	8f 7e       	andi	r24, 0xEF	; 239
 7b6:	84 bb       	out	0x14, r24	; 20
 7b8:	82 e4       	ldi	r24, 0x42	; 66
 7ba:	8a 95       	dec	r24
 7bc:	f1 f7       	brne	.-4      	; 0x7ba <TM1637_turnOnAndSetBrightness+0x6e>
 7be:	00 c0       	rjmp	.+0      	; 0x7c0 <TM1637_turnOnAndSetBrightness+0x74>
 7c0:	84 b3       	in	r24, 0x14	; 20
 7c2:	8f 7d       	andi	r24, 0xDF	; 223
 7c4:	84 bb       	out	0x14, r24	; 20
 7c6:	81 e2       	ldi	r24, 0x21	; 33
 7c8:	8a 95       	dec	r24
 7ca:	f1 f7       	brne	.-4      	; 0x7c8 <TM1637_turnOnAndSetBrightness+0x7c>
 7cc:	00 00       	nop
 7ce:	9c 99       	sbic	0x13, 4	; 19
 7d0:	03 c0       	rjmp	.+6      	; 0x7d8 <TM1637_turnOnAndSetBrightness+0x8c>
 7d2:	84 b3       	in	r24, 0x14	; 20
 7d4:	80 61       	ori	r24, 0x10	; 16
 7d6:	84 bb       	out	0x14, r24	; 20
 7d8:	81 e2       	ldi	r24, 0x21	; 33
 7da:	8a 95       	dec	r24
 7dc:	f1 f7       	brne	.-4      	; 0x7da <TM1637_turnOnAndSetBrightness+0x8e>
 7de:	00 00       	nop
 7e0:	84 b3       	in	r24, 0x14	; 20
 7e2:	80 62       	ori	r24, 0x20	; 32
 7e4:	84 bb       	out	0x14, r24	; 20
 7e6:	81 e2       	ldi	r24, 0x21	; 33
 7e8:	8a 95       	dec	r24
 7ea:	f1 f7       	brne	.-4      	; 0x7e8 <TM1637_turnOnAndSetBrightness+0x9c>
 7ec:	00 00       	nop
 7ee:	84 b3       	in	r24, 0x14	; 20
 7f0:	80 61       	ori	r24, 0x10	; 16
 7f2:	84 bb       	out	0x14, r24	; 20
 7f4:	81 e2       	ldi	r24, 0x21	; 33
 7f6:	8a 95       	dec	r24
 7f8:	f1 f7       	brne	.-4      	; 0x7f6 <TM1637_turnOnAndSetBrightness+0xaa>
 7fa:	00 00       	nop
 7fc:	84 b3       	in	r24, 0x14	; 20
 7fe:	8f 7d       	andi	r24, 0xDF	; 223
 800:	84 bb       	out	0x14, r24	; 20
 802:	82 e4       	ldi	r24, 0x42	; 66
 804:	8a 95       	dec	r24
 806:	f1 f7       	brne	.-4      	; 0x804 <TM1637_turnOnAndSetBrightness+0xb8>
 808:	00 c0       	rjmp	.+0      	; 0x80a <TM1637_turnOnAndSetBrightness+0xbe>
 80a:	84 b3       	in	r24, 0x14	; 20
 80c:	8f 7e       	andi	r24, 0xEF	; 239
 80e:	84 bb       	out	0x14, r24	; 20
 810:	82 e4       	ldi	r24, 0x42	; 66
 812:	8a 95       	dec	r24
 814:	f1 f7       	brne	.-4      	; 0x812 <TM1637_turnOnAndSetBrightness+0xc6>
 816:	00 c0       	rjmp	.+0      	; 0x818 <TM1637_turnOnAndSetBrightness+0xcc>
 818:	08 95       	ret

0000081a <TM1637_setSegments>:
 81a:	fc 01       	movw	r30, r24
 81c:	84 b3       	in	r24, 0x14	; 20
 81e:	80 61       	ori	r24, 0x10	; 16
 820:	84 bb       	out	0x14, r24	; 20
 822:	82 e4       	ldi	r24, 0x42	; 66
 824:	8a 95       	dec	r24
 826:	f1 f7       	brne	.-4      	; 0x824 <TM1637_setSegments+0xa>
 828:	00 c0       	rjmp	.+0      	; 0x82a <TM1637_setSegments+0x10>
 82a:	43 70       	andi	r20, 0x03	; 3
 82c:	40 6c       	ori	r20, 0xC0	; 192
 82e:	90 e0       	ldi	r25, 0x00	; 0
 830:	1d c0       	rjmp	.+58     	; 0x86c <TM1637_setSegments+0x52>
 832:	84 b3       	in	r24, 0x14	; 20
 834:	80 62       	ori	r24, 0x20	; 32
 836:	84 bb       	out	0x14, r24	; 20
 838:	81 e2       	ldi	r24, 0x21	; 33
 83a:	8a 95       	dec	r24
 83c:	f1 f7       	brne	.-4      	; 0x83a <TM1637_setSegments+0x20>
 83e:	00 00       	nop
 840:	40 ff       	sbrs	r20, 0
 842:	04 c0       	rjmp	.+8      	; 0x84c <TM1637_setSegments+0x32>
 844:	84 b3       	in	r24, 0x14	; 20
 846:	8f 7e       	andi	r24, 0xEF	; 239
 848:	84 bb       	out	0x14, r24	; 20
 84a:	03 c0       	rjmp	.+6      	; 0x852 <TM1637_setSegments+0x38>
 84c:	84 b3       	in	r24, 0x14	; 20
 84e:	80 61       	ori	r24, 0x10	; 16
 850:	84 bb       	out	0x14, r24	; 20
 852:	81 e2       	ldi	r24, 0x21	; 33
 854:	8a 95       	dec	r24
 856:	f1 f7       	brne	.-4      	; 0x854 <TM1637_setSegments+0x3a>
 858:	00 00       	nop
 85a:	84 b3       	in	r24, 0x14	; 20
 85c:	8f 7d       	andi	r24, 0xDF	; 223
 85e:	84 bb       	out	0x14, r24	; 20
 860:	82 e4       	ldi	r24, 0x42	; 66
 862:	8a 95       	dec	r24
 864:	f1 f7       	brne	.-4      	; 0x862 <TM1637_setSegments+0x48>
 866:	00 c0       	rjmp	.+0      	; 0x868 <TM1637_setSegments+0x4e>
 868:	46 95       	lsr	r20
 86a:	9f 5f       	subi	r25, 0xFF	; 255
 86c:	98 30       	cpi	r25, 0x08	; 8
 86e:	08 f3       	brcs	.-62     	; 0x832 <TM1637_setSegments+0x18>
 870:	84 b3       	in	r24, 0x14	; 20
 872:	80 62       	ori	r24, 0x20	; 32
 874:	84 bb       	out	0x14, r24	; 20
 876:	84 b3       	in	r24, 0x14	; 20
 878:	8f 7e       	andi	r24, 0xEF	; 239
 87a:	84 bb       	out	0x14, r24	; 20
 87c:	82 e4       	ldi	r24, 0x42	; 66
 87e:	8a 95       	dec	r24
 880:	f1 f7       	brne	.-4      	; 0x87e <TM1637_setSegments+0x64>
 882:	00 c0       	rjmp	.+0      	; 0x884 <TM1637_setSegments+0x6a>
 884:	84 b3       	in	r24, 0x14	; 20
 886:	8f 7d       	andi	r24, 0xDF	; 223
 888:	84 bb       	out	0x14, r24	; 20
 88a:	81 e2       	ldi	r24, 0x21	; 33
 88c:	8a 95       	dec	r24
 88e:	f1 f7       	brne	.-4      	; 0x88c <TM1637_setSegments+0x72>
 890:	00 00       	nop
 892:	9c 99       	sbic	0x13, 4	; 19
 894:	03 c0       	rjmp	.+6      	; 0x89c <TM1637_setSegments+0x82>
 896:	84 b3       	in	r24, 0x14	; 20
 898:	80 61       	ori	r24, 0x10	; 16
 89a:	84 bb       	out	0x14, r24	; 20
 89c:	81 e2       	ldi	r24, 0x21	; 33
 89e:	8a 95       	dec	r24
 8a0:	f1 f7       	brne	.-4      	; 0x89e <TM1637_setSegments+0x84>
 8a2:	00 00       	nop
 8a4:	40 e0       	ldi	r20, 0x00	; 0
 8a6:	40 c0       	rjmp	.+128    	; 0x928 <TM1637_setSegments+0x10e>
 8a8:	df 01       	movw	r26, r30
 8aa:	a4 0f       	add	r26, r20
 8ac:	b1 1d       	adc	r27, r1
 8ae:	3c 91       	ld	r19, X
 8b0:	20 e0       	ldi	r18, 0x00	; 0
 8b2:	1d c0       	rjmp	.+58     	; 0x8ee <TM1637_setSegments+0xd4>
 8b4:	94 b3       	in	r25, 0x14	; 20
 8b6:	90 62       	ori	r25, 0x20	; 32
 8b8:	94 bb       	out	0x14, r25	; 20
 8ba:	81 e2       	ldi	r24, 0x21	; 33
 8bc:	8a 95       	dec	r24
 8be:	f1 f7       	brne	.-4      	; 0x8bc <TM1637_setSegments+0xa2>
 8c0:	00 00       	nop
 8c2:	30 ff       	sbrs	r19, 0
 8c4:	04 c0       	rjmp	.+8      	; 0x8ce <TM1637_setSegments+0xb4>
 8c6:	94 b3       	in	r25, 0x14	; 20
 8c8:	9f 7e       	andi	r25, 0xEF	; 239
 8ca:	94 bb       	out	0x14, r25	; 20
 8cc:	03 c0       	rjmp	.+6      	; 0x8d4 <TM1637_setSegments+0xba>
 8ce:	94 b3       	in	r25, 0x14	; 20
 8d0:	90 61       	ori	r25, 0x10	; 16
 8d2:	94 bb       	out	0x14, r25	; 20
 8d4:	81 e2       	ldi	r24, 0x21	; 33
 8d6:	8a 95       	dec	r24
 8d8:	f1 f7       	brne	.-4      	; 0x8d6 <TM1637_setSegments+0xbc>
 8da:	00 00       	nop
 8dc:	94 b3       	in	r25, 0x14	; 20
 8de:	9f 7d       	andi	r25, 0xDF	; 223
 8e0:	94 bb       	out	0x14, r25	; 20
 8e2:	82 e4       	ldi	r24, 0x42	; 66
 8e4:	8a 95       	dec	r24
 8e6:	f1 f7       	brne	.-4      	; 0x8e4 <TM1637_setSegments+0xca>
 8e8:	00 c0       	rjmp	.+0      	; 0x8ea <TM1637_setSegments+0xd0>
 8ea:	36 95       	lsr	r19
 8ec:	2f 5f       	subi	r18, 0xFF	; 255
 8ee:	28 30       	cpi	r18, 0x08	; 8
 8f0:	08 f3       	brcs	.-62     	; 0x8b4 <TM1637_setSegments+0x9a>
 8f2:	84 b3       	in	r24, 0x14	; 20
 8f4:	80 62       	ori	r24, 0x20	; 32
 8f6:	84 bb       	out	0x14, r24	; 20
 8f8:	84 b3       	in	r24, 0x14	; 20
 8fa:	8f 7e       	andi	r24, 0xEF	; 239
 8fc:	84 bb       	out	0x14, r24	; 20
 8fe:	82 e4       	ldi	r24, 0x42	; 66
 900:	8a 95       	dec	r24
 902:	f1 f7       	brne	.-4      	; 0x900 <TM1637_setSegments+0xe6>
 904:	00 c0       	rjmp	.+0      	; 0x906 <TM1637_setSegments+0xec>
 906:	94 b3       	in	r25, 0x14	; 20
 908:	9f 7d       	andi	r25, 0xDF	; 223
 90a:	94 bb       	out	0x14, r25	; 20
 90c:	81 e2       	ldi	r24, 0x21	; 33
 90e:	8a 95       	dec	r24
 910:	f1 f7       	brne	.-4      	; 0x90e <TM1637_setSegments+0xf4>
 912:	00 00       	nop
 914:	9c 99       	sbic	0x13, 4	; 19
 916:	03 c0       	rjmp	.+6      	; 0x91e <TM1637_setSegments+0x104>
 918:	84 b3       	in	r24, 0x14	; 20
 91a:	80 61       	ori	r24, 0x10	; 16
 91c:	84 bb       	out	0x14, r24	; 20
 91e:	81 e2       	ldi	r24, 0x21	; 33
 920:	8a 95       	dec	r24
 922:	f1 f7       	brne	.-4      	; 0x920 <TM1637_setSegments+0x106>
 924:	00 00       	nop
 926:	4f 5f       	subi	r20, 0xFF	; 255
 928:	46 17       	cp	r20, r22
 92a:	08 f4       	brcc	.+2      	; 0x92e <TM1637_setSegments+0x114>
 92c:	bd cf       	rjmp	.-134    	; 0x8a8 <TM1637_setSegments+0x8e>
 92e:	84 b3       	in	r24, 0x14	; 20
 930:	80 62       	ori	r24, 0x20	; 32
 932:	84 bb       	out	0x14, r24	; 20
 934:	81 e2       	ldi	r24, 0x21	; 33
 936:	8a 95       	dec	r24
 938:	f1 f7       	brne	.-4      	; 0x936 <TM1637_setSegments+0x11c>
 93a:	00 00       	nop
 93c:	84 b3       	in	r24, 0x14	; 20
 93e:	80 61       	ori	r24, 0x10	; 16
 940:	84 bb       	out	0x14, r24	; 20
 942:	81 e2       	ldi	r24, 0x21	; 33
 944:	8a 95       	dec	r24
 946:	f1 f7       	brne	.-4      	; 0x944 <TM1637_setSegments+0x12a>
 948:	00 00       	nop
 94a:	84 b3       	in	r24, 0x14	; 20
 94c:	8f 7d       	andi	r24, 0xDF	; 223
 94e:	84 bb       	out	0x14, r24	; 20
 950:	82 e4       	ldi	r24, 0x42	; 66
 952:	8a 95       	dec	r24
 954:	f1 f7       	brne	.-4      	; 0x952 <TM1637_setSegments+0x138>
 956:	00 c0       	rjmp	.+0      	; 0x958 <TM1637_setSegments+0x13e>
 958:	84 b3       	in	r24, 0x14	; 20
 95a:	8f 7e       	andi	r24, 0xEF	; 239
 95c:	84 bb       	out	0x14, r24	; 20
 95e:	82 e4       	ldi	r24, 0x42	; 66
 960:	8a 95       	dec	r24
 962:	f1 f7       	brne	.-4      	; 0x960 <TM1637_setSegments+0x146>
 964:	00 c0       	rjmp	.+0      	; 0x966 <TM1637_setSegments+0x14c>
 966:	08 95       	ret

00000968 <TM1637_clear>:
 968:	84 b3       	in	r24, 0x14	; 20
 96a:	80 61       	ori	r24, 0x10	; 16
 96c:	84 bb       	out	0x14, r24	; 20
 96e:	82 e4       	ldi	r24, 0x42	; 66
 970:	8a 95       	dec	r24
 972:	f1 f7       	brne	.-4      	; 0x970 <TM1637_clear+0x8>
 974:	00 c0       	rjmp	.+0      	; 0x976 <TM1637_clear+0xe>
 976:	90 e0       	ldi	r25, 0x00	; 0
 978:	20 ec       	ldi	r18, 0xC0	; 192
 97a:	1d c0       	rjmp	.+58     	; 0x9b6 <TM1637_clear+0x4e>
 97c:	84 b3       	in	r24, 0x14	; 20
 97e:	80 62       	ori	r24, 0x20	; 32
 980:	84 bb       	out	0x14, r24	; 20
 982:	81 e2       	ldi	r24, 0x21	; 33
 984:	8a 95       	dec	r24
 986:	f1 f7       	brne	.-4      	; 0x984 <TM1637_clear+0x1c>
 988:	00 00       	nop
 98a:	20 ff       	sbrs	r18, 0
 98c:	04 c0       	rjmp	.+8      	; 0x996 <TM1637_clear+0x2e>
 98e:	84 b3       	in	r24, 0x14	; 20
 990:	8f 7e       	andi	r24, 0xEF	; 239
 992:	84 bb       	out	0x14, r24	; 20
 994:	03 c0       	rjmp	.+6      	; 0x99c <TM1637_clear+0x34>
 996:	84 b3       	in	r24, 0x14	; 20
 998:	80 61       	ori	r24, 0x10	; 16
 99a:	84 bb       	out	0x14, r24	; 20
 99c:	81 e2       	ldi	r24, 0x21	; 33
 99e:	8a 95       	dec	r24
 9a0:	f1 f7       	brne	.-4      	; 0x99e <TM1637_clear+0x36>
 9a2:	00 00       	nop
 9a4:	84 b3       	in	r24, 0x14	; 20
 9a6:	8f 7d       	andi	r24, 0xDF	; 223
 9a8:	84 bb       	out	0x14, r24	; 20
 9aa:	82 e4       	ldi	r24, 0x42	; 66
 9ac:	8a 95       	dec	r24
 9ae:	f1 f7       	brne	.-4      	; 0x9ac <TM1637_clear+0x44>
 9b0:	00 c0       	rjmp	.+0      	; 0x9b2 <TM1637_clear+0x4a>
 9b2:	26 95       	lsr	r18
 9b4:	9f 5f       	subi	r25, 0xFF	; 255
 9b6:	98 30       	cpi	r25, 0x08	; 8
 9b8:	08 f3       	brcs	.-62     	; 0x97c <TM1637_clear+0x14>
 9ba:	84 b3       	in	r24, 0x14	; 20
 9bc:	80 62       	ori	r24, 0x20	; 32
 9be:	84 bb       	out	0x14, r24	; 20
 9c0:	84 b3       	in	r24, 0x14	; 20
 9c2:	8f 7e       	andi	r24, 0xEF	; 239
 9c4:	84 bb       	out	0x14, r24	; 20
 9c6:	82 e4       	ldi	r24, 0x42	; 66
 9c8:	8a 95       	dec	r24
 9ca:	f1 f7       	brne	.-4      	; 0x9c8 <TM1637_clear+0x60>
 9cc:	00 c0       	rjmp	.+0      	; 0x9ce <TM1637_clear+0x66>
 9ce:	84 b3       	in	r24, 0x14	; 20
 9d0:	8f 7d       	andi	r24, 0xDF	; 223
 9d2:	84 bb       	out	0x14, r24	; 20
 9d4:	81 e2       	ldi	r24, 0x21	; 33
 9d6:	8a 95       	dec	r24
 9d8:	f1 f7       	brne	.-4      	; 0x9d6 <TM1637_clear+0x6e>
 9da:	00 00       	nop
 9dc:	9c 99       	sbic	0x13, 4	; 19
 9de:	03 c0       	rjmp	.+6      	; 0x9e6 <TM1637_clear+0x7e>
 9e0:	84 b3       	in	r24, 0x14	; 20
 9e2:	80 61       	ori	r24, 0x10	; 16
 9e4:	84 bb       	out	0x14, r24	; 20
 9e6:	81 e2       	ldi	r24, 0x21	; 33
 9e8:	8a 95       	dec	r24
 9ea:	f1 f7       	brne	.-4      	; 0x9e8 <TM1637_clear+0x80>
 9ec:	00 00       	nop
 9ee:	20 e0       	ldi	r18, 0x00	; 0
 9f0:	35 c0       	rjmp	.+106    	; 0xa5c <TM1637_clear+0xf4>
 9f2:	84 b3       	in	r24, 0x14	; 20
 9f4:	80 62       	ori	r24, 0x20	; 32
 9f6:	84 bb       	out	0x14, r24	; 20
 9f8:	81 e2       	ldi	r24, 0x21	; 33
 9fa:	8a 95       	dec	r24
 9fc:	f1 f7       	brne	.-4      	; 0x9fa <TM1637_clear+0x92>
 9fe:	00 00       	nop
 a00:	84 b3       	in	r24, 0x14	; 20
 a02:	80 61       	ori	r24, 0x10	; 16
 a04:	84 bb       	out	0x14, r24	; 20
 a06:	81 e2       	ldi	r24, 0x21	; 33
 a08:	8a 95       	dec	r24
 a0a:	f1 f7       	brne	.-4      	; 0xa08 <TM1637_clear+0xa0>
 a0c:	00 00       	nop
 a0e:	84 b3       	in	r24, 0x14	; 20
 a10:	8f 7d       	andi	r24, 0xDF	; 223
 a12:	84 bb       	out	0x14, r24	; 20
 a14:	82 e4       	ldi	r24, 0x42	; 66
 a16:	8a 95       	dec	r24
 a18:	f1 f7       	brne	.-4      	; 0xa16 <TM1637_clear+0xae>
 a1a:	00 c0       	rjmp	.+0      	; 0xa1c <TM1637_clear+0xb4>
 a1c:	9f 5f       	subi	r25, 0xFF	; 255
 a1e:	01 c0       	rjmp	.+2      	; 0xa22 <TM1637_clear+0xba>
 a20:	90 e0       	ldi	r25, 0x00	; 0
 a22:	98 30       	cpi	r25, 0x08	; 8
 a24:	30 f3       	brcs	.-52     	; 0x9f2 <TM1637_clear+0x8a>
 a26:	84 b3       	in	r24, 0x14	; 20
 a28:	80 62       	ori	r24, 0x20	; 32
 a2a:	84 bb       	out	0x14, r24	; 20
 a2c:	84 b3       	in	r24, 0x14	; 20
 a2e:	8f 7e       	andi	r24, 0xEF	; 239
 a30:	84 bb       	out	0x14, r24	; 20
 a32:	82 e4       	ldi	r24, 0x42	; 66
 a34:	8a 95       	dec	r24
 a36:	f1 f7       	brne	.-4      	; 0xa34 <TM1637_clear+0xcc>
 a38:	00 c0       	rjmp	.+0      	; 0xa3a <TM1637_clear+0xd2>
 a3a:	84 b3       	in	r24, 0x14	; 20
 a3c:	8f 7d       	andi	r24, 0xDF	; 223
 a3e:	84 bb       	out	0x14, r24	; 20
 a40:	81 e2       	ldi	r24, 0x21	; 33
 a42:	8a 95       	dec	r24
 a44:	f1 f7       	brne	.-4      	; 0xa42 <TM1637_clear+0xda>
 a46:	00 00       	nop
 a48:	9c 99       	sbic	0x13, 4	; 19
 a4a:	03 c0       	rjmp	.+6      	; 0xa52 <TM1637_clear+0xea>
 a4c:	84 b3       	in	r24, 0x14	; 20
 a4e:	80 61       	ori	r24, 0x10	; 16
 a50:	84 bb       	out	0x14, r24	; 20
 a52:	81 e2       	ldi	r24, 0x21	; 33
 a54:	8a 95       	dec	r24
 a56:	f1 f7       	brne	.-4      	; 0xa54 <TM1637_clear+0xec>
 a58:	00 00       	nop
 a5a:	2f 5f       	subi	r18, 0xFF	; 255
 a5c:	24 30       	cpi	r18, 0x04	; 4
 a5e:	00 f3       	brcs	.-64     	; 0xa20 <TM1637_clear+0xb8>
 a60:	84 b3       	in	r24, 0x14	; 20
 a62:	80 62       	ori	r24, 0x20	; 32
 a64:	84 bb       	out	0x14, r24	; 20
 a66:	81 e2       	ldi	r24, 0x21	; 33
 a68:	8a 95       	dec	r24
 a6a:	f1 f7       	brne	.-4      	; 0xa68 <TM1637_clear+0x100>
 a6c:	00 00       	nop
 a6e:	84 b3       	in	r24, 0x14	; 20
 a70:	80 61       	ori	r24, 0x10	; 16
 a72:	84 bb       	out	0x14, r24	; 20
 a74:	81 e2       	ldi	r24, 0x21	; 33
 a76:	8a 95       	dec	r24
 a78:	f1 f7       	brne	.-4      	; 0xa76 <TM1637_clear+0x10e>
 a7a:	00 00       	nop
 a7c:	84 b3       	in	r24, 0x14	; 20
 a7e:	8f 7d       	andi	r24, 0xDF	; 223
 a80:	84 bb       	out	0x14, r24	; 20
 a82:	82 e4       	ldi	r24, 0x42	; 66
 a84:	8a 95       	dec	r24
 a86:	f1 f7       	brne	.-4      	; 0xa84 <TM1637_clear+0x11c>
 a88:	00 c0       	rjmp	.+0      	; 0xa8a <TM1637_clear+0x122>
 a8a:	84 b3       	in	r24, 0x14	; 20
 a8c:	8f 7e       	andi	r24, 0xEF	; 239
 a8e:	84 bb       	out	0x14, r24	; 20
 a90:	82 e4       	ldi	r24, 0x42	; 66
 a92:	8a 95       	dec	r24
 a94:	f1 f7       	brne	.-4      	; 0xa92 <TM1637_clear+0x12a>
 a96:	00 c0       	rjmp	.+0      	; 0xa98 <TM1637_clear+0x130>
 a98:	08 95       	ret

00000a9a <_exit>:
 a9a:	f8 94       	cli

00000a9c <__stop_program>:
 a9c:	ff cf       	rjmp	.-2      	; 0xa9c <__stop_program>
