
GccApplication1.elf:     file format elf32-avr

Sections:
Idx Name          Size      VMA       LMA       File off  Algn
  0 .text         00000a28  00000000  00000000  00000094  2**1
                  CONTENTS, ALLOC, LOAD, READONLY, CODE
  1 .data         0000000c  00800060  00000a28  00000abc  2**0
                  CONTENTS, ALLOC, LOAD, DATA
  2 .bss          00000008  0080006c  0080006c  00000ac8  2**0
                  ALLOC
  3 .comment      00000030  00000000  00000000  00000ac8  2**0
                  CONTENTS, READONLY
  4 .note.gnu.avr.deviceinfo 0000003c  00000000  00000000  00000af8  2**2
                  CONTENTS, READONLY
  5 .debug_aranges 00000190  00000000  00000000  00000b34  2**0
                  CONTENTS, READONLY, DEBUGGING
  6 .debug_info   00002e70  00000000  00000000  00000cc4  2**0
                  CONTENTS, READONLY, DEBUGGING
  7 .debug_abbrev 00000bfe  00000000  00000000  00003b34  2**0
                  CONTENTS, READONLY, DEBUGGING
  8 .debug_line   000015d4  00000000  00000000  00004732  2**0
                  CONTENTS, READONLY, DEBUGGING
  9 .debug_frame  000003e0  00000000  00000000  00005d08  2**2
                  CONTENTS, READONLY, DEBUGGING
 10 .debug_str    000006f4  00000000  00000000  000060e8  2**0
                  CONTENTS, READONLY, DEBUGGING
 11 .debug_loc    000020f0  00000000  00000000  000067dc  2**0
                  CONTENTS, READONLY, DEBUGGING
 12 .debug_ranges 000001d8  00000000  00000000  000088cc  2**0
                  CONTENTS, READONLY, DEBUGGING

Disassembly of section .text:

00000000 <__vectors>:
   0:	12 c0       	rjmp	.+36     	; 0x26 <__ctors_end>
   2:	f0 c0       	rjmp	.+480    	; 0x1e4 <__vector_1>
   4:	3e c1       	rjmp	.+636    	; 0x282 <__vector_2>
   6:	2a c0       	rjmp	.+84     	; 0x5c <__bad_interrupt>
   8:	af c0       	rjmp	.+350    	; 0x168 <__vector_4>
   a:	28 c0       	rjmp	.+80     	; 0x5c <__bad_interrupt>
   c:	27 c0       	rjmp	.+78     	; 0x5c <__bad_interrupt>
   e:	26 c0       	rjmp	.+76     	; 0x5c <__bad_interrupt>
  10:	25 c0       	rjmp	.+74     	; 0x5c <__bad_interrupt>
  12:	24 c0       	rjmp	.+72     	; 0x5c <__bad_interrupt>
  14:	23 c0       	rjmp	.+70     	; 0x5c <__bad_interrupt>
  16:	22 c0       	rjmp	.+68     	; 0x5c <__bad_interrupt>
  18:	21 c0       	rjmp	.+66     	; 0x5c <__bad_interrupt>
  1a:	20 c0       	rjmp	.+64     	; 0x5c <__bad_interrupt>
  1c:	1f c0       	rjmp	.+62     	; 0x5c <__bad_interrupt>
  1e:	1e c0       	rjmp	.+60     	; 0x5c <__bad_interrupt>
  20:	1d c0       	rjmp	.+58     	; 0x5c <__bad_interrupt>
  22:	1c c0       	rjmp	.+56     	; 0x5c <__bad_interrupt>
  24:	1b c0       	rjmp	.+54     	; 0x5c <__bad_interrupt>

00000026 <__ctors_end>:
  26:	11 24       	eor	r1, r1
  28:	1f be       	out	0x3f, r1	; 63
  2a:	cf e5       	ldi	r28, 0x5F	; 95
  2c:	d4 e0       	ldi	r29, 0x04	; 4
  2e:	de bf       	out	0x3e, r29	; 62
  30:	cd bf       	out	0x3d, r28	; 61

00000032 <__do_copy_data>:
  32:	10 e0       	ldi	r17, 0x00	; 0
  34:	a0 e6       	ldi	r26, 0x60	; 96
  36:	b0 e0       	ldi	r27, 0x00	; 0
  38:	e8 e2       	ldi	r30, 0x28	; 40
  3a:	fa e0       	ldi	r31, 0x0A	; 10
  3c:	02 c0       	rjmp	.+4      	; 0x42 <__SREG__+0x3>
  3e:	05 90       	lpm	r0, Z+
  40:	0d 92       	st	X+, r0
  42:	ac 36       	cpi	r26, 0x6C	; 108
  44:	b1 07       	cpc	r27, r17
  46:	d9 f7       	brne	.-10     	; 0x3e <__SP_H__>

00000048 <__do_clear_bss>:
  48:	20 e0       	ldi	r18, 0x00	; 0
  4a:	ac e6       	ldi	r26, 0x6C	; 108
  4c:	b0 e0       	ldi	r27, 0x00	; 0
  4e:	01 c0       	rjmp	.+2      	; 0x52 <.do_clear_bss_start>

00000050 <.do_clear_bss_loop>:
  50:	1d 92       	st	X+, r1

00000052 <.do_clear_bss_start>:
  52:	a4 37       	cpi	r26, 0x74	; 116
  54:	b2 07       	cpc	r27, r18
  56:	e1 f7       	brne	.-8      	; 0x50 <.do_clear_bss_loop>
  58:	6e d1       	rcall	.+732    	; 0x336 <main>
  5a:	e4 c4       	rjmp	.+2504   	; 0xa24 <_exit>

0000005c <__bad_interrupt>:
  5c:	d1 cf       	rjmp	.-94     	; 0x0 <__vectors>

0000005e <select_display_digit>:
  5e:	8a 30       	cpi	r24, 0x0A	; 10
  60:	30 f4       	brcc	.+12     	; 0x6e <select_display_digit+0x10>
  62:	e8 2f       	mov	r30, r24
  64:	f0 e0       	ldi	r31, 0x00	; 0
  66:	e0 5a       	subi	r30, 0xA0	; 160
  68:	ff 4f       	sbci	r31, 0xFF	; 255
  6a:	80 81       	ld	r24, Z
  6c:	08 95       	ret
  6e:	80 e0       	ldi	r24, 0x00	; 0
  70:	08 95       	ret

00000072 <wakeup_display>:
  72:	81 e0       	ldi	r24, 0x01	; 1
  74:	30 d3       	rcall	.+1632   	; 0x6d6 <TM1637_turnOnAndSetBrightness>
  76:	08 95       	ret

00000078 <print_time_on_display>:
  78:	ff 92       	push	r15
  7a:	0f 93       	push	r16
  7c:	1f 93       	push	r17
  7e:	cf 93       	push	r28
  80:	df 93       	push	r29
  82:	cd b7       	in	r28, 0x3d	; 61
  84:	de b7       	in	r29, 0x3e	; 62
  86:	28 97       	sbiw	r28, 0x08	; 8
  88:	0f b6       	in	r0, 0x3f	; 63
  8a:	f8 94       	cli
  8c:	de bf       	out	0x3e, r29	; 62
  8e:	0f be       	out	0x3f, r0	; 63
  90:	cd bf       	out	0x3d, r28	; 61
  92:	9d ec       	ldi	r25, 0xCD	; 205
  94:	89 9f       	mul	r24, r25
  96:	21 2d       	mov	r18, r1
  98:	11 24       	eor	r1, r1
  9a:	26 95       	lsr	r18
  9c:	26 95       	lsr	r18
  9e:	26 95       	lsr	r18
  a0:	29 83       	std	Y+1, r18	; 0x01
  a2:	22 0f       	add	r18, r18
  a4:	32 2f       	mov	r19, r18
  a6:	33 0f       	add	r19, r19
  a8:	33 0f       	add	r19, r19
  aa:	23 0f       	add	r18, r19
  ac:	82 1b       	sub	r24, r18
  ae:	8a 83       	std	Y+2, r24	; 0x02
  b0:	69 9f       	mul	r22, r25
  b2:	81 2d       	mov	r24, r1
  b4:	11 24       	eor	r1, r1
  b6:	86 95       	lsr	r24
  b8:	86 95       	lsr	r24
  ba:	86 95       	lsr	r24
  bc:	8b 83       	std	Y+3, r24	; 0x03
  be:	88 0f       	add	r24, r24
  c0:	98 2f       	mov	r25, r24
  c2:	99 0f       	add	r25, r25
  c4:	99 0f       	add	r25, r25
  c6:	89 0f       	add	r24, r25
  c8:	68 1b       	sub	r22, r24
  ca:	6c 83       	std	Y+4, r22	; 0x04
  cc:	f1 2c       	mov	r15, r1
  ce:	12 c0       	rjmp	.+36     	; 0xf4 <print_time_on_display+0x7c>
  d0:	0f 2d       	mov	r16, r15
  d2:	10 e0       	ldi	r17, 0x00	; 0
  d4:	e1 e0       	ldi	r30, 0x01	; 1
  d6:	f0 e0       	ldi	r31, 0x00	; 0
  d8:	ec 0f       	add	r30, r28
  da:	fd 1f       	adc	r31, r29
  dc:	e0 0f       	add	r30, r16
  de:	f1 1f       	adc	r31, r17
  e0:	80 81       	ld	r24, Z
  e2:	bd df       	rcall	.-134    	; 0x5e <select_display_digit>
  e4:	e5 e0       	ldi	r30, 0x05	; 5
  e6:	f0 e0       	ldi	r31, 0x00	; 0
  e8:	ec 0f       	add	r30, r28
  ea:	fd 1f       	adc	r31, r29
  ec:	e0 0f       	add	r30, r16
  ee:	f1 1f       	adc	r31, r17
  f0:	80 83       	st	Z, r24
  f2:	f3 94       	inc	r15
  f4:	83 e0       	ldi	r24, 0x03	; 3
  f6:	8f 15       	cp	r24, r15
  f8:	58 f7       	brcc	.-42     	; 0xd0 <print_time_on_display+0x58>
  fa:	40 e0       	ldi	r20, 0x00	; 0
  fc:	64 e0       	ldi	r22, 0x04	; 4
  fe:	ce 01       	movw	r24, r28
 100:	05 96       	adiw	r24, 0x05	; 5
 102:	50 d3       	rcall	.+1696   	; 0x7a4 <TM1637_setSegments>
 104:	28 96       	adiw	r28, 0x08	; 8
 106:	0f b6       	in	r0, 0x3f	; 63
 108:	f8 94       	cli
 10a:	de bf       	out	0x3e, r29	; 62
 10c:	0f be       	out	0x3f, r0	; 63
 10e:	cd bf       	out	0x3d, r28	; 61
 110:	df 91       	pop	r29
 112:	cf 91       	pop	r28
 114:	1f 91       	pop	r17
 116:	0f 91       	pop	r16
 118:	ff 90       	pop	r15
 11a:	08 95       	ret

0000011c <EEPROM_write>:
 11c:	e1 99       	sbic	0x1c, 1	; 28
 11e:	fe cf       	rjmp	.-4      	; 0x11c <EEPROM_write>
 120:	90 e0       	ldi	r25, 0x00	; 0
 122:	9f bb       	out	0x1f, r25	; 31
 124:	8e bb       	out	0x1e, r24	; 30
 126:	6d bb       	out	0x1d, r22	; 29
 128:	8c b3       	in	r24, 0x1c	; 28
 12a:	84 60       	ori	r24, 0x04	; 4
 12c:	8c bb       	out	0x1c, r24	; 28
 12e:	8c b3       	in	r24, 0x1c	; 28
 130:	82 60       	ori	r24, 0x02	; 2
 132:	8c bb       	out	0x1c, r24	; 28
 134:	08 95       	ret

00000136 <EEPROM_read>:
 136:	e1 99       	sbic	0x1c, 1	; 28
 138:	fe cf       	rjmp	.-4      	; 0x136 <EEPROM_read>
 13a:	90 e0       	ldi	r25, 0x00	; 0
 13c:	9f bb       	out	0x1f, r25	; 31
 13e:	8e bb       	out	0x1e, r24	; 30
 140:	8c b3       	in	r24, 0x1c	; 28
 142:	81 60       	ori	r24, 0x01	; 1
 144:	8c bb       	out	0x1c, r24	; 28
 146:	8d b3       	in	r24, 0x1d	; 29
 148:	08 95       	ret

0000014a <activate_sleep_mode>:
uint8_t interval = 0;

/* реализация спящего режима */
void activate_sleep_mode()
{
	if (interval >= MAX_INTERVAL)
 14a:	80 91 6c 00 	lds	r24, 0x006C	; 0x80006c <__data_end>
 14e:	8a 30       	cpi	r24, 0x0A	; 10
 150:	50 f0       	brcs	.+20     	; 0x166 <activate_sleep_mode+0x1c>
	{	
		TM1637_turnOff();
 152:	59 d2       	rcall	.+1202   	; 0x606 <TM1637_turnOff>
		OCR2 = 1;
 154:	81 e0       	ldi	r24, 0x01	; 1
 156:	83 bd       	out	0x23, r24	; 35
		/* жду сброс флагов */
		while (ASSR != ASSR_REG_REDY);
 158:	82 b5       	in	r24, 0x22	; 34
 15a:	88 30       	cpi	r24, 0x08	; 8
 15c:	e9 f7       	brne	.-6      	; 0x158 <activate_sleep_mode+0xe>
		sleep_enable();
 15e:	85 b7       	in	r24, 0x35	; 53
 160:	80 68       	ori	r24, 0x80	; 128
 162:	85 bf       	out	0x35, r24	; 53
		sleep_cpu();
 164:	88 95       	sleep
 166:	08 95       	ret

00000168 <__vector_4>:
	}
}

/* отсчет времени */
ISR(TIMER2_OVF_vect)
{
 168:	1f 92       	push	r1
 16a:	0f 92       	push	r0
 16c:	0f b6       	in	r0, 0x3f	; 63
 16e:	0f 92       	push	r0
 170:	11 24       	eor	r1, r1
 172:	2f 93       	push	r18
 174:	3f 93       	push	r19
 176:	4f 93       	push	r20
 178:	5f 93       	push	r21
 17a:	6f 93       	push	r22
 17c:	7f 93       	push	r23
 17e:	8f 93       	push	r24
 180:	9f 93       	push	r25
 182:	af 93       	push	r26
 184:	bf 93       	push	r27
 186:	ef 93       	push	r30
 188:	ff 93       	push	r31
	TCNT2 = 0;
 18a:	14 bc       	out	0x24, r1	; 36
	seconds += STEP;
 18c:	80 91 6f 00 	lds	r24, 0x006F	; 0x80006f <seconds>
 190:	8f 5f       	subi	r24, 0xFF	; 255
 192:	80 93 6f 00 	sts	0x006F, r24	; 0x80006f <seconds>
	interval += STEP;
 196:	80 91 6c 00 	lds	r24, 0x006C	; 0x80006c <__data_end>
 19a:	8f 5f       	subi	r24, 0xFF	; 255
 19c:	80 93 6c 00 	sts	0x006C, r24	; 0x80006c <__data_end>
	control_seconds(&seconds, &minutes);
 1a0:	6a e6       	ldi	r22, 0x6A	; 106
 1a2:	70 e0       	ldi	r23, 0x00	; 0
 1a4:	8f e6       	ldi	r24, 0x6F	; 111
 1a6:	90 e0       	ldi	r25, 0x00	; 0
 1a8:	9d d1       	rcall	.+826    	; 0x4e4 <control_seconds>
	control_min(&minutes, &hour);
 1aa:	6b e6       	ldi	r22, 0x6B	; 107
 1ac:	70 e0       	ldi	r23, 0x00	; 0
 1ae:	8a e6       	ldi	r24, 0x6A	; 106
 1b0:	90 e0       	ldi	r25, 0x00	; 0
 1b2:	a3 d1       	rcall	.+838    	; 0x4fa <control_min>
	control_hour(&seconds, &minutes, &hour);
 1b4:	4b e6       	ldi	r20, 0x6B	; 107
 1b6:	50 e0       	ldi	r21, 0x00	; 0
 1b8:	6a e6       	ldi	r22, 0x6A	; 106
 1ba:	70 e0       	ldi	r23, 0x00	; 0
 1bc:	8f e6       	ldi	r24, 0x6F	; 111
 1be:	90 e0       	ldi	r25, 0x00	; 0
 1c0:	a7 d1       	rcall	.+846    	; 0x510 <control_hour>
}
 1c2:	ff 91       	pop	r31
 1c4:	ef 91       	pop	r30
 1c6:	bf 91       	pop	r27
 1c8:	af 91       	pop	r26
 1ca:	9f 91       	pop	r25
 1cc:	8f 91       	pop	r24
 1ce:	7f 91       	pop	r23
 1d0:	6f 91       	pop	r22
 1d2:	5f 91       	pop	r21
 1d4:	4f 91       	pop	r20
 1d6:	3f 91       	pop	r19
 1d8:	2f 91       	pop	r18
 1da:	0f 90       	pop	r0
 1dc:	0f be       	out	0x3f, r0	; 63
 1de:	0f 90       	pop	r0
 1e0:	1f 90       	pop	r1
 1e2:	18 95       	reti

000001e4 <__vector_1>:

/* выход из сна + метка когда кот ел */
ISR(INT0_vect)
{
 1e4:	1f 92       	push	r1
 1e6:	0f 92       	push	r0
 1e8:	0f b6       	in	r0, 0x3f	; 63
 1ea:	0f 92       	push	r0
 1ec:	11 24       	eor	r1, r1
 1ee:	2f 93       	push	r18
 1f0:	3f 93       	push	r19
 1f2:	4f 93       	push	r20
 1f4:	5f 93       	push	r21
 1f6:	6f 93       	push	r22
 1f8:	7f 93       	push	r23
 1fa:	8f 93       	push	r24
 1fc:	9f 93       	push	r25
 1fe:	af 93       	push	r26
 200:	bf 93       	push	r27
 202:	ef 93       	push	r30
 204:	ff 93       	push	r31
 206:	cf 93       	push	r28
 208:	df 93       	push	r29
 20a:	00 d0       	rcall	.+0      	; 0x20c <__EEPROM_REGION_LENGTH__+0xc>
 20c:	00 d0       	rcall	.+0      	; 0x20e <__EEPROM_REGION_LENGTH__+0xe>
 20e:	cd b7       	in	r28, 0x3d	; 61
 210:	de b7       	in	r29, 0x3e	; 62
	sleep_disable();
 212:	85 b7       	in	r24, 0x35	; 53
 214:	8f 77       	andi	r24, 0x7F	; 127
 216:	85 bf       	out	0x35, r24	; 53
	cat_hour = hour;
 218:	60 91 6b 00 	lds	r22, 0x006B	; 0x80006b <hour>
 21c:	60 93 6e 00 	sts	0x006E, r22	; 0x80006e <cat_hour>
	cat_minutes = minutes;
 220:	80 91 6a 00 	lds	r24, 0x006A	; 0x80006a <minutes>
 224:	80 93 6d 00 	sts	0x006D, r24	; 0x80006d <cat_minutes>
	EEPROM_write(HOUR_ADDRESS, cat_hour);
 228:	80 e0       	ldi	r24, 0x00	; 0
 22a:	78 df       	rcall	.-272    	; 0x11c <EEPROM_write>
	EEPROM_write(MIN_ADDRESS, cat_minutes);
 22c:	60 91 6d 00 	lds	r22, 0x006D	; 0x80006d <cat_minutes>
 230:	81 e0       	ldi	r24, 0x01	; 1
 232:	74 df       	rcall	.-280    	; 0x11c <EEPROM_write>
	wakeup_display();
 234:	1e df       	rcall	.-452    	; 0x72 <wakeup_display>
	TM1637_setSegments(EAT_WORD, DISP_LEN, START_POS);
 236:	89 e7       	ldi	r24, 0x79	; 121
 238:	89 83       	std	Y+1, r24	; 0x01
 23a:	87 e7       	ldi	r24, 0x77	; 119
 23c:	8a 83       	std	Y+2, r24	; 0x02
 23e:	88 e7       	ldi	r24, 0x78	; 120
 240:	8b 83       	std	Y+3, r24	; 0x03
 242:	8f e0       	ldi	r24, 0x0F	; 15
 244:	8c 83       	std	Y+4, r24	; 0x04
 246:	40 e0       	ldi	r20, 0x00	; 0
 248:	64 e0       	ldi	r22, 0x04	; 4
 24a:	ce 01       	movw	r24, r28
 24c:	01 96       	adiw	r24, 0x01	; 1
 24e:	aa d2       	rcall	.+1364   	; 0x7a4 <TM1637_setSegments>
	interval = 0;
 250:	10 92 6c 00 	sts	0x006C, r1	; 0x80006c <__data_end>
}
 254:	0f 90       	pop	r0
 256:	0f 90       	pop	r0
 258:	0f 90       	pop	r0
 25a:	0f 90       	pop	r0
 25c:	df 91       	pop	r29
 25e:	cf 91       	pop	r28
 260:	ff 91       	pop	r31
 262:	ef 91       	pop	r30
 264:	bf 91       	pop	r27
 266:	af 91       	pop	r26
 268:	9f 91       	pop	r25
 26a:	8f 91       	pop	r24
 26c:	7f 91       	pop	r23
 26e:	6f 91       	pop	r22
 270:	5f 91       	pop	r21
 272:	4f 91       	pop	r20
 274:	3f 91       	pop	r19
 276:	2f 91       	pop	r18
 278:	0f 90       	pop	r0
 27a:	0f be       	out	0x3f, r0	; 63
 27c:	0f 90       	pop	r0
 27e:	1f 90       	pop	r1
 280:	18 95       	reti

00000282 <__vector_2>:

ISR(INT1_vect)
{
 282:	1f 92       	push	r1
 284:	0f 92       	push	r0
 286:	0f b6       	in	r0, 0x3f	; 63
 288:	0f 92       	push	r0
 28a:	11 24       	eor	r1, r1
 28c:	2f 93       	push	r18
 28e:	3f 93       	push	r19
 290:	4f 93       	push	r20
 292:	5f 93       	push	r21
 294:	6f 93       	push	r22
 296:	7f 93       	push	r23
 298:	8f 93       	push	r24
 29a:	9f 93       	push	r25
 29c:	af 93       	push	r26
 29e:	bf 93       	push	r27
 2a0:	ef 93       	push	r30
 2a2:	ff 93       	push	r31
	sleep_disable();
 2a4:	85 b7       	in	r24, 0x35	; 53
 2a6:	8f 77       	andi	r24, 0x7F	; 127
 2a8:	85 bf       	out	0x35, r24	; 53

	if (VIEW_BTN_CLICK)
 2aa:	87 99       	sbic	0x10, 7	; 16
 2ac:	06 c0       	rjmp	.+12     	; 0x2ba <__vector_2+0x38>
	{
		wakeup_display();
 2ae:	e1 de       	rcall	.-574    	; 0x72 <wakeup_display>
		print_time_on_display(cat_hour, cat_minutes);
 2b0:	60 91 6d 00 	lds	r22, 0x006D	; 0x80006d <cat_minutes>
 2b4:	80 91 6e 00 	lds	r24, 0x006E	; 0x80006e <cat_hour>
 2b8:	df de       	rcall	.-578    	; 0x78 <print_time_on_display>
	}
	
	if(MENU_BTN_CLICK)
 2ba:	84 99       	sbic	0x10, 4	; 16
 2bc:	0e c0       	rjmp	.+28     	; 0x2da <__vector_2+0x58>
	{
		wakeup_display();
 2be:	d9 de       	rcall	.-590    	; 0x72 <wakeup_display>
		event_listener();
 2c0:	b5 d0       	rcall	.+362    	; 0x42c <event_listener>
		setup_time(&seconds, &minutes, &hour);
 2c2:	4b e6       	ldi	r20, 0x6B	; 107
 2c4:	50 e0       	ldi	r21, 0x00	; 0
 2c6:	6a e6       	ldi	r22, 0x6A	; 106
 2c8:	70 e0       	ldi	r23, 0x00	; 0
 2ca:	8f e6       	ldi	r24, 0x6F	; 111
 2cc:	90 e0       	ldi	r25, 0x00	; 0
 2ce:	ff d0       	rcall	.+510    	; 0x4ce <setup_time>
		print_time_on_display(hour, minutes);
 2d0:	60 91 6a 00 	lds	r22, 0x006A	; 0x80006a <minutes>
 2d4:	80 91 6b 00 	lds	r24, 0x006B	; 0x80006b <hour>
 2d8:	cf de       	rcall	.-610    	; 0x78 <print_time_on_display>
	}
	interval = 0;
 2da:	10 92 6c 00 	sts	0x006C, r1	; 0x80006c <__data_end>
}
 2de:	ff 91       	pop	r31
 2e0:	ef 91       	pop	r30
 2e2:	bf 91       	pop	r27
 2e4:	af 91       	pop	r26
 2e6:	9f 91       	pop	r25
 2e8:	8f 91       	pop	r24
 2ea:	7f 91       	pop	r23
 2ec:	6f 91       	pop	r22
 2ee:	5f 91       	pop	r21
 2f0:	4f 91       	pop	r20
 2f2:	3f 91       	pop	r19
 2f4:	2f 91       	pop	r18
 2f6:	0f 90       	pop	r0
 2f8:	0f be       	out	0x3f, r0	; 63
 2fa:	0f 90       	pop	r0
 2fc:	1f 90       	pop	r1
 2fe:	18 95       	reti

00000300 <start_timer2_async>:

/* настройка Timer/Counter2 */
void start_timer2_async()
{
	ASSR |= (1 << AS2); // вклю асинхронный режим
 300:	82 b5       	in	r24, 0x22	; 34
 302:	88 60       	ori	r24, 0x08	; 8
 304:	82 bd       	out	0x22, r24	; 34
	/* чищу регистры таймера от мусора */
	TCCR2 = 0;
 306:	15 bc       	out	0x25, r1	; 37
	OCR2 = 0;
 308:	13 bc       	out	0x23, r1	; 35
	TCNT2 = 0;
 30a:	14 bc       	out	0x24, r1	; 36
	/* делитель частоты = 128 */
	TCCR2 |= (1 << CS22) | (1 << CS20);
 30c:	85 b5       	in	r24, 0x25	; 37
 30e:	85 60       	ori	r24, 0x05	; 5
 310:	85 bd       	out	0x25, r24	; 37
	/* жду сброс флагов для старта в асинхронном режиме */
	while (ASSR != ASSR_REG_REDY);
 312:	82 b5       	in	r24, 0x22	; 34
 314:	88 30       	cpi	r24, 0x08	; 8
 316:	e9 f7       	brne	.-6      	; 0x312 <start_timer2_async+0x12>
	/* чистим флаги прерываний */
	TIFR |= (1 << OCF2) | (1 << TOV2);
 318:	88 b7       	in	r24, 0x38	; 56
 31a:	80 6c       	ori	r24, 0xC0	; 192
 31c:	88 bf       	out	0x38, r24	; 56
	/* включаю прерывание по переполнению таймера */
	TIMSK |= (1 << TOIE2);
 31e:	89 b7       	in	r24, 0x39	; 57
 320:	80 64       	ori	r24, 0x40	; 64
 322:	89 bf       	out	0x39, r24	; 57
 324:	08 95       	ret

00000326 <setup_ext_interrapt>:
}

/* настройка внешних прерываний */
void setup_ext_interrapt()
{
	GICR |= (1 << INT0) | (1 << INT1);
 326:	8b b7       	in	r24, 0x3b	; 59
 328:	80 6c       	ori	r24, 0xC0	; 192
 32a:	8b bf       	out	0x3b, r24	; 59
	DDRD = 0;
 32c:	11 ba       	out	0x11, r1	; 17
	PORTD |= (1 << INT0_PIN) | (1 << INT1_PIN) | (1 << MENU_BTN) | (1 << UP_BTN) | (1 << DOWN_BTN) | (1 << VIEW_BTN);
 32e:	82 b3       	in	r24, 0x12	; 18
 330:	8c 6f       	ori	r24, 0xFC	; 252
 332:	82 bb       	out	0x12, r24	; 18
 334:	08 95       	ret

00000336 <main>:
}

int main(void)
{
 336:	cf 93       	push	r28
 338:	df 93       	push	r29
 33a:	00 d0       	rcall	.+0      	; 0x33c <main+0x6>
 33c:	00 d0       	rcall	.+0      	; 0x33e <main+0x8>
 33e:	cd b7       	in	r28, 0x3d	; 61
 340:	de b7       	in	r29, 0x3e	; 62
	ACSR |= (1 << ACD); // ОТКЛЮЧЕНИЕ АЦП
 342:	88 b1       	in	r24, 0x08	; 8
 344:	80 68       	ori	r24, 0x80	; 128
 346:	88 b9       	out	0x08, r24	; 8
	start_timer2_async();
 348:	db df       	rcall	.-74     	; 0x300 <start_timer2_async>
	setup_ext_interrapt();
 34a:	ed df       	rcall	.-38     	; 0x326 <setup_ext_interrapt>
	sei();
 34c:	78 94       	sei
	
	cat_hour = EEPROM_read(HOUR_ADDRESS);
 34e:	80 e0       	ldi	r24, 0x00	; 0
 350:	f2 de       	rcall	.-540    	; 0x136 <EEPROM_read>
 352:	80 93 6e 00 	sts	0x006E, r24	; 0x80006e <cat_hour>
	cat_minutes = EEPROM_read(MIN_ADDRESS);
 356:	81 e0       	ldi	r24, 0x01	; 1
 358:	ee de       	rcall	.-548    	; 0x136 <EEPROM_read>
 35a:	80 93 6d 00 	sts	0x006D, r24	; 0x80006d <cat_minutes>
	
	TM1637_init();
 35e:	ea d0       	rcall	.+468    	; 0x534 <TM1637_init>
	TM1637_turnOnAndSetBrightness(BRIGHTNES);
 360:	81 e0       	ldi	r24, 0x01	; 1
 362:	b9 d1       	rcall	.+882    	; 0x6d6 <TM1637_turnOnAndSetBrightness>
	TM1637_setSegments(HI_WORD, DISP_LEN, START_POS);
 364:	86 e7       	ldi	r24, 0x76	; 118
 366:	89 83       	std	Y+1, r24	; 0x01
 368:	8c e5       	ldi	r24, 0x5C	; 92
 36a:	8a 83       	std	Y+2, r24	; 0x02
 36c:	88 e3       	ldi	r24, 0x38	; 56
 36e:	8b 83       	std	Y+3, r24	; 0x03
 370:	87 e7       	ldi	r24, 0x77	; 119
 372:	8c 83       	std	Y+4, r24	; 0x04
 374:	40 e0       	ldi	r20, 0x00	; 0
 376:	64 e0       	ldi	r22, 0x04	; 4
 378:	ce 01       	movw	r24, r28
 37a:	01 96       	adiw	r24, 0x01	; 1
 37c:	13 d2       	rcall	.+1062   	; 0x7a4 <TM1637_setSegments>
	#else
		//round up by default
		__ticks_dc = (uint32_t)(ceil(fabs(__tmp)));
	#endif

	__builtin_avr_delay_cycles(__ticks_dc);
 37e:	2f e3       	ldi	r18, 0x3F	; 63
 380:	8d e0       	ldi	r24, 0x0D	; 13
 382:	93 e0       	ldi	r25, 0x03	; 3
 384:	21 50       	subi	r18, 0x01	; 1
 386:	80 40       	sbci	r24, 0x00	; 0
 388:	90 40       	sbci	r25, 0x00	; 0
 38a:	e1 f7       	brne	.-8      	; 0x384 <main+0x4e>
 38c:	00 c0       	rjmp	.+0      	; 0x38e <main+0x58>
 38e:	00 00       	nop
	_delay_ms(WAIT1S);
	print_time_on_display(hour, minutes);
 390:	60 91 6a 00 	lds	r22, 0x006A	; 0x80006a <minutes>
 394:	80 91 6b 00 	lds	r24, 0x006B	; 0x80006b <hour>
 398:	6f de       	rcall	.-802    	; 0x78 <print_time_on_display>
	set_sleep_mode(SLEEP_MODE_PWR_SAVE);
 39a:	85 b7       	in	r24, 0x35	; 53
 39c:	8f 78       	andi	r24, 0x8F	; 143
 39e:	80 63       	ori	r24, 0x30	; 48
 3a0:	85 bf       	out	0x35, r24	; 53
	
	while(1)
	{
		activate_sleep_mode();
 3a2:	d3 de       	rcall	.-602    	; 0x14a <activate_sleep_mode>
 3a4:	fe cf       	rjmp	.-4      	; 0x3a2 <main+0x6c>

000003a6 <update_menu>:
 3a6:	2f e3       	ldi	r18, 0x3F	; 63
 3a8:	8d e0       	ldi	r24, 0x0D	; 13
 3aa:	93 e0       	ldi	r25, 0x03	; 3
 3ac:	21 50       	subi	r18, 0x01	; 1
 3ae:	80 40       	sbci	r24, 0x00	; 0
 3b0:	90 40       	sbci	r25, 0x00	; 0
 3b2:	e1 f7       	brne	.-8      	; 0x3ac <update_menu+0x6>
 3b4:	00 c0       	rjmp	.+0      	; 0x3b6 <update_menu+0x10>
 3b6:	00 00       	nop
 3b8:	9c d2       	rcall	.+1336   	; 0x8f2 <TM1637_clear>
 3ba:	08 95       	ret

000003bc <set_time_up>:
 3bc:	86 17       	cp	r24, r22
 3be:	10 f4       	brcc	.+4      	; 0x3c4 <set_time_up+0x8>
 3c0:	8f 5f       	subi	r24, 0xFF	; 255
 3c2:	08 95       	ret
 3c4:	80 e0       	ldi	r24, 0x00	; 0
 3c6:	08 95       	ret

000003c8 <set_time_down>:
 3c8:	88 23       	and	r24, r24
 3ca:	11 f0       	breq	.+4      	; 0x3d0 <set_time_down+0x8>
 3cc:	6f ef       	ldi	r22, 0xFF	; 255
 3ce:	68 0f       	add	r22, r24
 3d0:	86 2f       	mov	r24, r22
 3d2:	08 95       	ret

000003d4 <tune_hour>:
 3d4:	85 99       	sbic	0x10, 5	; 16
 3d6:	08 c0       	rjmp	.+16     	; 0x3e8 <tune_hour+0x14>
 3d8:	10 92 70 00 	sts	0x0070, r1	; 0x800070 <wait_time>
 3dc:	67 e1       	ldi	r22, 0x17	; 23
 3de:	80 91 72 00 	lds	r24, 0x0072	; 0x800072 <hr>
 3e2:	ec df       	rcall	.-40     	; 0x3bc <set_time_up>
 3e4:	80 93 72 00 	sts	0x0072, r24	; 0x800072 <hr>
 3e8:	86 99       	sbic	0x10, 6	; 16
 3ea:	08 c0       	rjmp	.+16     	; 0x3fc <tune_hour+0x28>
 3ec:	10 92 70 00 	sts	0x0070, r1	; 0x800070 <wait_time>
 3f0:	67 e1       	ldi	r22, 0x17	; 23
 3f2:	80 91 72 00 	lds	r24, 0x0072	; 0x800072 <hr>
 3f6:	e8 df       	rcall	.-48     	; 0x3c8 <set_time_down>
 3f8:	80 93 72 00 	sts	0x0072, r24	; 0x800072 <hr>
 3fc:	08 95       	ret

000003fe <tune_min>:
 3fe:	85 99       	sbic	0x10, 5	; 16
 400:	09 c0       	rjmp	.+18     	; 0x414 <__DATA_REGION_LENGTH__+0x14>
 402:	88 e0       	ldi	r24, 0x08	; 8
 404:	80 93 70 00 	sts	0x0070, r24	; 0x800070 <wait_time>
 408:	6b e3       	ldi	r22, 0x3B	; 59
 40a:	80 91 71 00 	lds	r24, 0x0071	; 0x800071 <min>
 40e:	d6 df       	rcall	.-84     	; 0x3bc <set_time_up>
 410:	80 93 71 00 	sts	0x0071, r24	; 0x800071 <min>
 414:	86 99       	sbic	0x10, 6	; 16
 416:	09 c0       	rjmp	.+18     	; 0x42a <__DATA_REGION_LENGTH__+0x2a>
 418:	88 e0       	ldi	r24, 0x08	; 8
 41a:	80 93 70 00 	sts	0x0070, r24	; 0x800070 <wait_time>
 41e:	6b e3       	ldi	r22, 0x3B	; 59
 420:	80 91 71 00 	lds	r24, 0x0071	; 0x800071 <min>
 424:	d1 df       	rcall	.-94     	; 0x3c8 <set_time_down>
 426:	80 93 71 00 	sts	0x0071, r24	; 0x800071 <min>
 42a:	08 95       	ret

0000042c <event_listener>:
 42c:	cf 93       	push	r28
 42e:	df 93       	push	r29
 430:	cd b7       	in	r28, 0x3d	; 61
 432:	de b7       	in	r29, 0x3e	; 62
 434:	28 97       	sbiw	r28, 0x08	; 8
 436:	0f b6       	in	r0, 0x3f	; 63
 438:	f8 94       	cli
 43a:	de bf       	out	0x3e, r29	; 62
 43c:	0f be       	out	0x3f, r0	; 63
 43e:	cd bf       	out	0x3d, r28	; 61
 440:	10 92 72 00 	sts	0x0072, r1	; 0x800072 <hr>
 444:	10 92 71 00 	sts	0x0071, r1	; 0x800071 <min>
 448:	8d e6       	ldi	r24, 0x6D	; 109
 44a:	8d 83       	std	Y+5, r24	; 0x05
 44c:	8b e7       	ldi	r24, 0x7B	; 123
 44e:	8e 83       	std	Y+6, r24	; 0x06
 450:	88 e7       	ldi	r24, 0x78	; 120
 452:	8f 83       	std	Y+7, r24	; 0x07
 454:	88 87       	std	Y+8, r24	; 0x08
 456:	40 e0       	ldi	r20, 0x00	; 0
 458:	64 e0       	ldi	r22, 0x04	; 4
 45a:	ce 01       	movw	r24, r28
 45c:	05 96       	adiw	r24, 0x05	; 5
 45e:	a2 d1       	rcall	.+836    	; 0x7a4 <TM1637_setSegments>
 460:	a2 df       	rcall	.-188    	; 0x3a6 <update_menu>
 462:	1a c0       	rjmp	.+52     	; 0x498 <__stack+0x39>
 464:	80 91 70 00 	lds	r24, 0x0070	; 0x800070 <wait_time>
 468:	88 30       	cpi	r24, 0x08	; 8
 46a:	10 f4       	brcc	.+4      	; 0x470 <__stack+0x11>
 46c:	b3 df       	rcall	.-154    	; 0x3d4 <tune_hour>
 46e:	01 c0       	rjmp	.+2      	; 0x472 <__stack+0x13>
 470:	c6 df       	rcall	.-116    	; 0x3fe <tune_min>
 472:	80 91 70 00 	lds	r24, 0x0070	; 0x800070 <wait_time>
 476:	8f 5f       	subi	r24, 0xFF	; 255
 478:	80 93 70 00 	sts	0x0070, r24	; 0x800070 <wait_time>
 47c:	2f e9       	ldi	r18, 0x9F	; 159
 47e:	86 e8       	ldi	r24, 0x86	; 134
 480:	91 e0       	ldi	r25, 0x01	; 1
 482:	21 50       	subi	r18, 0x01	; 1
 484:	80 40       	sbci	r24, 0x00	; 0
 486:	90 40       	sbci	r25, 0x00	; 0
 488:	e1 f7       	brne	.-8      	; 0x482 <__stack+0x23>
 48a:	00 c0       	rjmp	.+0      	; 0x48c <__stack+0x2d>
 48c:	00 00       	nop
 48e:	60 91 71 00 	lds	r22, 0x0071	; 0x800071 <min>
 492:	80 91 72 00 	lds	r24, 0x0072	; 0x800072 <hr>
 496:	f0 dd       	rcall	.-1056   	; 0x78 <print_time_on_display>
 498:	84 9b       	sbis	0x10, 4	; 16
 49a:	e4 cf       	rjmp	.-56     	; 0x464 <__stack+0x5>
 49c:	10 92 70 00 	sts	0x0070, r1	; 0x800070 <wait_time>
 4a0:	8e e5       	ldi	r24, 0x5E	; 94
 4a2:	89 83       	std	Y+1, r24	; 0x01
 4a4:	8c e5       	ldi	r24, 0x5C	; 92
 4a6:	8a 83       	std	Y+2, r24	; 0x02
 4a8:	84 e5       	ldi	r24, 0x54	; 84
 4aa:	8b 83       	std	Y+3, r24	; 0x03
 4ac:	89 e7       	ldi	r24, 0x79	; 121
 4ae:	8c 83       	std	Y+4, r24	; 0x04
 4b0:	40 e0       	ldi	r20, 0x00	; 0
 4b2:	64 e0       	ldi	r22, 0x04	; 4
 4b4:	ce 01       	movw	r24, r28
 4b6:	01 96       	adiw	r24, 0x01	; 1
 4b8:	75 d1       	rcall	.+746    	; 0x7a4 <TM1637_setSegments>
 4ba:	75 df       	rcall	.-278    	; 0x3a6 <update_menu>
 4bc:	28 96       	adiw	r28, 0x08	; 8
 4be:	0f b6       	in	r0, 0x3f	; 63
 4c0:	f8 94       	cli
 4c2:	de bf       	out	0x3e, r29	; 62
 4c4:	0f be       	out	0x3f, r0	; 63
 4c6:	cd bf       	out	0x3d, r28	; 61
 4c8:	df 91       	pop	r29
 4ca:	cf 91       	pop	r28
 4cc:	08 95       	ret

000004ce <setup_time>:
 4ce:	fc 01       	movw	r30, r24
 4d0:	10 82       	st	Z, r1
 4d2:	80 91 71 00 	lds	r24, 0x0071	; 0x800071 <min>
 4d6:	fb 01       	movw	r30, r22
 4d8:	80 83       	st	Z, r24
 4da:	80 91 72 00 	lds	r24, 0x0072	; 0x800072 <hr>
 4de:	fa 01       	movw	r30, r20
 4e0:	80 83       	st	Z, r24
 4e2:	08 95       	ret

000004e4 <control_seconds>:
 4e4:	fc 01       	movw	r30, r24
 4e6:	20 81       	ld	r18, Z
 4e8:	2c 33       	cpi	r18, 0x3C	; 60
 4ea:	30 f0       	brcs	.+12     	; 0x4f8 <control_seconds+0x14>
 4ec:	fb 01       	movw	r30, r22
 4ee:	20 81       	ld	r18, Z
 4f0:	2f 5f       	subi	r18, 0xFF	; 255
 4f2:	20 83       	st	Z, r18
 4f4:	fc 01       	movw	r30, r24
 4f6:	10 82       	st	Z, r1
 4f8:	08 95       	ret

000004fa <control_min>:
 4fa:	fc 01       	movw	r30, r24
 4fc:	20 81       	ld	r18, Z
 4fe:	2c 33       	cpi	r18, 0x3C	; 60
 500:	30 f0       	brcs	.+12     	; 0x50e <control_min+0x14>
 502:	fb 01       	movw	r30, r22
 504:	20 81       	ld	r18, Z
 506:	2f 5f       	subi	r18, 0xFF	; 255
 508:	20 83       	st	Z, r18
 50a:	fc 01       	movw	r30, r24
 50c:	10 82       	st	Z, r1
 50e:	08 95       	ret

00000510 <control_hour>:
 510:	fc 01       	movw	r30, r24
 512:	da 01       	movw	r26, r20
 514:	9c 91       	ld	r25, X
 516:	97 31       	cpi	r25, 0x17	; 23
 518:	61 f4       	brne	.+24     	; 0x532 <control_hour+0x22>
 51a:	db 01       	movw	r26, r22
 51c:	8c 91       	ld	r24, X
 51e:	8b 33       	cpi	r24, 0x3B	; 59
 520:	40 f0       	brcs	.+16     	; 0x532 <control_hour+0x22>
 522:	80 81       	ld	r24, Z
 524:	8b 33       	cpi	r24, 0x3B	; 59
 526:	28 f0       	brcs	.+10     	; 0x532 <control_hour+0x22>
 528:	da 01       	movw	r26, r20
 52a:	1c 92       	st	X, r1
 52c:	db 01       	movw	r26, r22
 52e:	1c 92       	st	X, r1
 530:	10 82       	st	Z, r1
 532:	08 95       	ret

00000534 <TM1637_init>:
	#else
		//round up by default
		__ticks_dc = (uint32_t)(ceil(fabs(__tmp)));
	#endif

	__builtin_avr_delay_cycles(__ticks_dc);
 534:	84 b3       	in	r24, 0x14	; 20
 536:	8f 7e       	andi	r24, 0xEF	; 239
 538:	84 bb       	out	0x14, r24	; 20
 53a:	84 b3       	in	r24, 0x14	; 20
 53c:	8f 7d       	andi	r24, 0xDF	; 223
 53e:	84 bb       	out	0x14, r24	; 20
 540:	85 b3       	in	r24, 0x15	; 21
 542:	8f 7c       	andi	r24, 0xCF	; 207
 544:	85 bb       	out	0x15, r24	; 21
 546:	84 b3       	in	r24, 0x14	; 20
 548:	80 61       	ori	r24, 0x10	; 16
 54a:	84 bb       	out	0x14, r24	; 20
 54c:	82 e4       	ldi	r24, 0x42	; 66
 54e:	8a 95       	dec	r24
 550:	f1 f7       	brne	.-4      	; 0x54e <TM1637_init+0x1a>
 552:	00 c0       	rjmp	.+0      	; 0x554 <TM1637_init+0x20>
 554:	90 e0       	ldi	r25, 0x00	; 0
 556:	20 e4       	ldi	r18, 0x40	; 64
 558:	1d c0       	rjmp	.+58     	; 0x594 <TM1637_init+0x60>
 55a:	84 b3       	in	r24, 0x14	; 20
 55c:	80 62       	ori	r24, 0x20	; 32
 55e:	84 bb       	out	0x14, r24	; 20
 560:	81 e2       	ldi	r24, 0x21	; 33
 562:	8a 95       	dec	r24
 564:	f1 f7       	brne	.-4      	; 0x562 <TM1637_init+0x2e>
 566:	00 00       	nop
 568:	20 ff       	sbrs	r18, 0
 56a:	04 c0       	rjmp	.+8      	; 0x574 <TM1637_init+0x40>
 56c:	84 b3       	in	r24, 0x14	; 20
 56e:	8f 7e       	andi	r24, 0xEF	; 239
 570:	84 bb       	out	0x14, r24	; 20
 572:	03 c0       	rjmp	.+6      	; 0x57a <TM1637_init+0x46>
 574:	84 b3       	in	r24, 0x14	; 20
 576:	80 61       	ori	r24, 0x10	; 16
 578:	84 bb       	out	0x14, r24	; 20
 57a:	81 e2       	ldi	r24, 0x21	; 33
 57c:	8a 95       	dec	r24
 57e:	f1 f7       	brne	.-4      	; 0x57c <TM1637_init+0x48>
 580:	00 00       	nop
 582:	84 b3       	in	r24, 0x14	; 20
 584:	8f 7d       	andi	r24, 0xDF	; 223
 586:	84 bb       	out	0x14, r24	; 20
 588:	82 e4       	ldi	r24, 0x42	; 66
 58a:	8a 95       	dec	r24
 58c:	f1 f7       	brne	.-4      	; 0x58a <TM1637_init+0x56>
 58e:	00 c0       	rjmp	.+0      	; 0x590 <TM1637_init+0x5c>
 590:	26 95       	lsr	r18
 592:	9f 5f       	subi	r25, 0xFF	; 255
 594:	98 30       	cpi	r25, 0x08	; 8
 596:	08 f3       	brcs	.-62     	; 0x55a <TM1637_init+0x26>
 598:	84 b3       	in	r24, 0x14	; 20
 59a:	80 62       	ori	r24, 0x20	; 32
 59c:	84 bb       	out	0x14, r24	; 20
 59e:	84 b3       	in	r24, 0x14	; 20
 5a0:	8f 7e       	andi	r24, 0xEF	; 239
 5a2:	84 bb       	out	0x14, r24	; 20
 5a4:	82 e4       	ldi	r24, 0x42	; 66
 5a6:	8a 95       	dec	r24
 5a8:	f1 f7       	brne	.-4      	; 0x5a6 <TM1637_init+0x72>
 5aa:	00 c0       	rjmp	.+0      	; 0x5ac <TM1637_init+0x78>
 5ac:	84 b3       	in	r24, 0x14	; 20
 5ae:	8f 7d       	andi	r24, 0xDF	; 223
 5b0:	84 bb       	out	0x14, r24	; 20
 5b2:	81 e2       	ldi	r24, 0x21	; 33
 5b4:	8a 95       	dec	r24
 5b6:	f1 f7       	brne	.-4      	; 0x5b4 <TM1637_init+0x80>
 5b8:	00 00       	nop
 5ba:	9c 99       	sbic	0x13, 4	; 19
 5bc:	03 c0       	rjmp	.+6      	; 0x5c4 <TM1637_init+0x90>
 5be:	84 b3       	in	r24, 0x14	; 20
 5c0:	80 61       	ori	r24, 0x10	; 16
 5c2:	84 bb       	out	0x14, r24	; 20
 5c4:	81 e2       	ldi	r24, 0x21	; 33
 5c6:	8a 95       	dec	r24
 5c8:	f1 f7       	brne	.-4      	; 0x5c6 <TM1637_init+0x92>
 5ca:	00 00       	nop
 5cc:	84 b3       	in	r24, 0x14	; 20
 5ce:	80 62       	ori	r24, 0x20	; 32
 5d0:	84 bb       	out	0x14, r24	; 20
 5d2:	81 e2       	ldi	r24, 0x21	; 33
 5d4:	8a 95       	dec	r24
 5d6:	f1 f7       	brne	.-4      	; 0x5d4 <TM1637_init+0xa0>
 5d8:	00 00       	nop
 5da:	84 b3       	in	r24, 0x14	; 20
 5dc:	80 61       	ori	r24, 0x10	; 16
 5de:	84 bb       	out	0x14, r24	; 20
 5e0:	81 e2       	ldi	r24, 0x21	; 33
 5e2:	8a 95       	dec	r24
 5e4:	f1 f7       	brne	.-4      	; 0x5e2 <TM1637_init+0xae>
 5e6:	00 00       	nop
 5e8:	84 b3       	in	r24, 0x14	; 20
 5ea:	8f 7d       	andi	r24, 0xDF	; 223
 5ec:	84 bb       	out	0x14, r24	; 20
 5ee:	82 e4       	ldi	r24, 0x42	; 66
 5f0:	8a 95       	dec	r24
 5f2:	f1 f7       	brne	.-4      	; 0x5f0 <TM1637_init+0xbc>
 5f4:	00 c0       	rjmp	.+0      	; 0x5f6 <TM1637_init+0xc2>
 5f6:	84 b3       	in	r24, 0x14	; 20
 5f8:	8f 7e       	andi	r24, 0xEF	; 239
 5fa:	84 bb       	out	0x14, r24	; 20
 5fc:	82 e4       	ldi	r24, 0x42	; 66
 5fe:	8a 95       	dec	r24
 600:	f1 f7       	brne	.-4      	; 0x5fe <TM1637_init+0xca>
 602:	00 c0       	rjmp	.+0      	; 0x604 <TM1637_init+0xd0>
 604:	08 95       	ret

00000606 <TM1637_turnOff>:
 606:	80 91 73 00 	lds	r24, 0x0073	; 0x800073 <TM1637_brightness_reg>
 60a:	87 70       	andi	r24, 0x07	; 7
 60c:	80 93 73 00 	sts	0x0073, r24	; 0x800073 <TM1637_brightness_reg>
 610:	84 b3       	in	r24, 0x14	; 20
 612:	80 61       	ori	r24, 0x10	; 16
 614:	84 bb       	out	0x14, r24	; 20
 616:	82 e4       	ldi	r24, 0x42	; 66
 618:	8a 95       	dec	r24
 61a:	f1 f7       	brne	.-4      	; 0x618 <TM1637_turnOff+0x12>
 61c:	00 c0       	rjmp	.+0      	; 0x61e <TM1637_turnOff+0x18>
 61e:	90 91 73 00 	lds	r25, 0x0073	; 0x800073 <TM1637_brightness_reg>
 622:	9f 70       	andi	r25, 0x0F	; 15
 624:	90 68       	ori	r25, 0x80	; 128
 626:	20 e0       	ldi	r18, 0x00	; 0
 628:	1d c0       	rjmp	.+58     	; 0x664 <TM1637_turnOff+0x5e>
 62a:	84 b3       	in	r24, 0x14	; 20
 62c:	80 62       	ori	r24, 0x20	; 32
 62e:	84 bb       	out	0x14, r24	; 20
 630:	81 e2       	ldi	r24, 0x21	; 33
 632:	8a 95       	dec	r24
 634:	f1 f7       	brne	.-4      	; 0x632 <TM1637_turnOff+0x2c>
 636:	00 00       	nop
 638:	90 ff       	sbrs	r25, 0
 63a:	04 c0       	rjmp	.+8      	; 0x644 <TM1637_turnOff+0x3e>
 63c:	84 b3       	in	r24, 0x14	; 20
 63e:	8f 7e       	andi	r24, 0xEF	; 239
 640:	84 bb       	out	0x14, r24	; 20
 642:	03 c0       	rjmp	.+6      	; 0x64a <TM1637_turnOff+0x44>
 644:	84 b3       	in	r24, 0x14	; 20
 646:	80 61       	ori	r24, 0x10	; 16
 648:	84 bb       	out	0x14, r24	; 20
 64a:	81 e2       	ldi	r24, 0x21	; 33
 64c:	8a 95       	dec	r24
 64e:	f1 f7       	brne	.-4      	; 0x64c <TM1637_turnOff+0x46>
 650:	00 00       	nop
 652:	84 b3       	in	r24, 0x14	; 20
 654:	8f 7d       	andi	r24, 0xDF	; 223
 656:	84 bb       	out	0x14, r24	; 20
 658:	82 e4       	ldi	r24, 0x42	; 66
 65a:	8a 95       	dec	r24
 65c:	f1 f7       	brne	.-4      	; 0x65a <TM1637_turnOff+0x54>
 65e:	00 c0       	rjmp	.+0      	; 0x660 <TM1637_turnOff+0x5a>
 660:	96 95       	lsr	r25
 662:	2f 5f       	subi	r18, 0xFF	; 255
 664:	28 30       	cpi	r18, 0x08	; 8
 666:	08 f3       	brcs	.-62     	; 0x62a <TM1637_turnOff+0x24>
 668:	84 b3       	in	r24, 0x14	; 20
 66a:	80 62       	ori	r24, 0x20	; 32
 66c:	84 bb       	out	0x14, r24	; 20
 66e:	84 b3       	in	r24, 0x14	; 20
 670:	8f 7e       	andi	r24, 0xEF	; 239
 672:	84 bb       	out	0x14, r24	; 20
 674:	82 e4       	ldi	r24, 0x42	; 66
 676:	8a 95       	dec	r24
 678:	f1 f7       	brne	.-4      	; 0x676 <TM1637_turnOff+0x70>
 67a:	00 c0       	rjmp	.+0      	; 0x67c <TM1637_turnOff+0x76>
 67c:	84 b3       	in	r24, 0x14	; 20
 67e:	8f 7d       	andi	r24, 0xDF	; 223
 680:	84 bb       	out	0x14, r24	; 20
 682:	81 e2       	ldi	r24, 0x21	; 33
 684:	8a 95       	dec	r24
 686:	f1 f7       	brne	.-4      	; 0x684 <TM1637_turnOff+0x7e>
 688:	00 00       	nop
 68a:	9c 99       	sbic	0x13, 4	; 19
 68c:	03 c0       	rjmp	.+6      	; 0x694 <TM1637_turnOff+0x8e>
 68e:	84 b3       	in	r24, 0x14	; 20
 690:	80 61       	ori	r24, 0x10	; 16
 692:	84 bb       	out	0x14, r24	; 20
 694:	81 e2       	ldi	r24, 0x21	; 33
 696:	8a 95       	dec	r24
 698:	f1 f7       	brne	.-4      	; 0x696 <TM1637_turnOff+0x90>
 69a:	00 00       	nop
 69c:	84 b3       	in	r24, 0x14	; 20
 69e:	80 62       	ori	r24, 0x20	; 32
 6a0:	84 bb       	out	0x14, r24	; 20
 6a2:	81 e2       	ldi	r24, 0x21	; 33
 6a4:	8a 95       	dec	r24
 6a6:	f1 f7       	brne	.-4      	; 0x6a4 <TM1637_turnOff+0x9e>
 6a8:	00 00       	nop
 6aa:	84 b3       	in	r24, 0x14	; 20
 6ac:	80 61       	ori	r24, 0x10	; 16
 6ae:	84 bb       	out	0x14, r24	; 20
 6b0:	81 e2       	ldi	r24, 0x21	; 33
 6b2:	8a 95       	dec	r24
 6b4:	f1 f7       	brne	.-4      	; 0x6b2 <TM1637_turnOff+0xac>
 6b6:	00 00       	nop
 6b8:	84 b3       	in	r24, 0x14	; 20
 6ba:	8f 7d       	andi	r24, 0xDF	; 223
 6bc:	84 bb       	out	0x14, r24	; 20
 6be:	82 e4       	ldi	r24, 0x42	; 66
 6c0:	8a 95       	dec	r24
 6c2:	f1 f7       	brne	.-4      	; 0x6c0 <TM1637_turnOff+0xba>
 6c4:	00 c0       	rjmp	.+0      	; 0x6c6 <TM1637_turnOff+0xc0>
 6c6:	84 b3       	in	r24, 0x14	; 20
 6c8:	8f 7e       	andi	r24, 0xEF	; 239
 6ca:	84 bb       	out	0x14, r24	; 20
 6cc:	82 e4       	ldi	r24, 0x42	; 66
 6ce:	8a 95       	dec	r24
 6d0:	f1 f7       	brne	.-4      	; 0x6ce <TM1637_turnOff+0xc8>
 6d2:	00 c0       	rjmp	.+0      	; 0x6d4 <TM1637_turnOff+0xce>
 6d4:	08 95       	ret

000006d6 <TM1637_turnOnAndSetBrightness>:
 6d6:	87 70       	andi	r24, 0x07	; 7
 6d8:	88 60       	ori	r24, 0x08	; 8
 6da:	80 93 73 00 	sts	0x0073, r24	; 0x800073 <TM1637_brightness_reg>
 6de:	84 b3       	in	r24, 0x14	; 20
 6e0:	80 61       	ori	r24, 0x10	; 16
 6e2:	84 bb       	out	0x14, r24	; 20
 6e4:	82 e4       	ldi	r24, 0x42	; 66
 6e6:	8a 95       	dec	r24
 6e8:	f1 f7       	brne	.-4      	; 0x6e6 <TM1637_turnOnAndSetBrightness+0x10>
 6ea:	00 c0       	rjmp	.+0      	; 0x6ec <TM1637_turnOnAndSetBrightness+0x16>
 6ec:	90 91 73 00 	lds	r25, 0x0073	; 0x800073 <TM1637_brightness_reg>
 6f0:	9f 70       	andi	r25, 0x0F	; 15
 6f2:	90 68       	ori	r25, 0x80	; 128
 6f4:	20 e0       	ldi	r18, 0x00	; 0
 6f6:	1d c0       	rjmp	.+58     	; 0x732 <TM1637_turnOnAndSetBrightness+0x5c>
 6f8:	84 b3       	in	r24, 0x14	; 20
 6fa:	80 62       	ori	r24, 0x20	; 32
 6fc:	84 bb       	out	0x14, r24	; 20
 6fe:	81 e2       	ldi	r24, 0x21	; 33
 700:	8a 95       	dec	r24
 702:	f1 f7       	brne	.-4      	; 0x700 <TM1637_turnOnAndSetBrightness+0x2a>
 704:	00 00       	nop
 706:	90 ff       	sbrs	r25, 0
 708:	04 c0       	rjmp	.+8      	; 0x712 <TM1637_turnOnAndSetBrightness+0x3c>
 70a:	84 b3       	in	r24, 0x14	; 20
 70c:	8f 7e       	andi	r24, 0xEF	; 239
 70e:	84 bb       	out	0x14, r24	; 20
 710:	03 c0       	rjmp	.+6      	; 0x718 <TM1637_turnOnAndSetBrightness+0x42>
 712:	84 b3       	in	r24, 0x14	; 20
 714:	80 61       	ori	r24, 0x10	; 16
 716:	84 bb       	out	0x14, r24	; 20
 718:	81 e2       	ldi	r24, 0x21	; 33
 71a:	8a 95       	dec	r24
 71c:	f1 f7       	brne	.-4      	; 0x71a <TM1637_turnOnAndSetBrightness+0x44>
 71e:	00 00       	nop
 720:	84 b3       	in	r24, 0x14	; 20
 722:	8f 7d       	andi	r24, 0xDF	; 223
 724:	84 bb       	out	0x14, r24	; 20
 726:	82 e4       	ldi	r24, 0x42	; 66
 728:	8a 95       	dec	r24
 72a:	f1 f7       	brne	.-4      	; 0x728 <TM1637_turnOnAndSetBrightness+0x52>
 72c:	00 c0       	rjmp	.+0      	; 0x72e <TM1637_turnOnAndSetBrightness+0x58>
 72e:	96 95       	lsr	r25
 730:	2f 5f       	subi	r18, 0xFF	; 255
 732:	28 30       	cpi	r18, 0x08	; 8
 734:	08 f3       	brcs	.-62     	; 0x6f8 <TM1637_turnOnAndSetBrightness+0x22>
 736:	84 b3       	in	r24, 0x14	; 20
 738:	80 62       	ori	r24, 0x20	; 32
 73a:	84 bb       	out	0x14, r24	; 20
 73c:	84 b3       	in	r24, 0x14	; 20
 73e:	8f 7e       	andi	r24, 0xEF	; 239
 740:	84 bb       	out	0x14, r24	; 20
 742:	82 e4       	ldi	r24, 0x42	; 66
 744:	8a 95       	dec	r24
 746:	f1 f7       	brne	.-4      	; 0x744 <TM1637_turnOnAndSetBrightness+0x6e>
 748:	00 c0       	rjmp	.+0      	; 0x74a <TM1637_turnOnAndSetBrightness+0x74>
 74a:	84 b3       	in	r24, 0x14	; 20
 74c:	8f 7d       	andi	r24, 0xDF	; 223
 74e:	84 bb       	out	0x14, r24	; 20
 750:	81 e2       	ldi	r24, 0x21	; 33
 752:	8a 95       	dec	r24
 754:	f1 f7       	brne	.-4      	; 0x752 <TM1637_turnOnAndSetBrightness+0x7c>
 756:	00 00       	nop
 758:	9c 99       	sbic	0x13, 4	; 19
 75a:	03 c0       	rjmp	.+6      	; 0x762 <TM1637_turnOnAndSetBrightness+0x8c>
 75c:	84 b3       	in	r24, 0x14	; 20
 75e:	80 61       	ori	r24, 0x10	; 16
 760:	84 bb       	out	0x14, r24	; 20
 762:	81 e2       	ldi	r24, 0x21	; 33
 764:	8a 95       	dec	r24
 766:	f1 f7       	brne	.-4      	; 0x764 <TM1637_turnOnAndSetBrightness+0x8e>
 768:	00 00       	nop
 76a:	84 b3       	in	r24, 0x14	; 20
 76c:	80 62       	ori	r24, 0x20	; 32
 76e:	84 bb       	out	0x14, r24	; 20
 770:	81 e2       	ldi	r24, 0x21	; 33
 772:	8a 95       	dec	r24
 774:	f1 f7       	brne	.-4      	; 0x772 <TM1637_turnOnAndSetBrightness+0x9c>
 776:	00 00       	nop
 778:	84 b3       	in	r24, 0x14	; 20
 77a:	80 61       	ori	r24, 0x10	; 16
 77c:	84 bb       	out	0x14, r24	; 20
 77e:	81 e2       	ldi	r24, 0x21	; 33
 780:	8a 95       	dec	r24
 782:	f1 f7       	brne	.-4      	; 0x780 <TM1637_turnOnAndSetBrightness+0xaa>
 784:	00 00       	nop
 786:	84 b3       	in	r24, 0x14	; 20
 788:	8f 7d       	andi	r24, 0xDF	; 223
 78a:	84 bb       	out	0x14, r24	; 20
 78c:	82 e4       	ldi	r24, 0x42	; 66
 78e:	8a 95       	dec	r24
 790:	f1 f7       	brne	.-4      	; 0x78e <TM1637_turnOnAndSetBrightness+0xb8>
 792:	00 c0       	rjmp	.+0      	; 0x794 <TM1637_turnOnAndSetBrightness+0xbe>
 794:	84 b3       	in	r24, 0x14	; 20
 796:	8f 7e       	andi	r24, 0xEF	; 239
 798:	84 bb       	out	0x14, r24	; 20
 79a:	82 e4       	ldi	r24, 0x42	; 66
 79c:	8a 95       	dec	r24
 79e:	f1 f7       	brne	.-4      	; 0x79c <TM1637_turnOnAndSetBrightness+0xc6>
 7a0:	00 c0       	rjmp	.+0      	; 0x7a2 <TM1637_turnOnAndSetBrightness+0xcc>
 7a2:	08 95       	ret

000007a4 <TM1637_setSegments>:
 7a4:	fc 01       	movw	r30, r24
 7a6:	84 b3       	in	r24, 0x14	; 20
 7a8:	80 61       	ori	r24, 0x10	; 16
 7aa:	84 bb       	out	0x14, r24	; 20
 7ac:	82 e4       	ldi	r24, 0x42	; 66
 7ae:	8a 95       	dec	r24
 7b0:	f1 f7       	brne	.-4      	; 0x7ae <TM1637_setSegments+0xa>
 7b2:	00 c0       	rjmp	.+0      	; 0x7b4 <TM1637_setSegments+0x10>
 7b4:	43 70       	andi	r20, 0x03	; 3
 7b6:	40 6c       	ori	r20, 0xC0	; 192
 7b8:	90 e0       	ldi	r25, 0x00	; 0
 7ba:	1d c0       	rjmp	.+58     	; 0x7f6 <TM1637_setSegments+0x52>
 7bc:	84 b3       	in	r24, 0x14	; 20
 7be:	80 62       	ori	r24, 0x20	; 32
 7c0:	84 bb       	out	0x14, r24	; 20
 7c2:	81 e2       	ldi	r24, 0x21	; 33
 7c4:	8a 95       	dec	r24
 7c6:	f1 f7       	brne	.-4      	; 0x7c4 <TM1637_setSegments+0x20>
 7c8:	00 00       	nop
 7ca:	40 ff       	sbrs	r20, 0
 7cc:	04 c0       	rjmp	.+8      	; 0x7d6 <TM1637_setSegments+0x32>
 7ce:	84 b3       	in	r24, 0x14	; 20
 7d0:	8f 7e       	andi	r24, 0xEF	; 239
 7d2:	84 bb       	out	0x14, r24	; 20
 7d4:	03 c0       	rjmp	.+6      	; 0x7dc <TM1637_setSegments+0x38>
 7d6:	84 b3       	in	r24, 0x14	; 20
 7d8:	80 61       	ori	r24, 0x10	; 16
 7da:	84 bb       	out	0x14, r24	; 20
 7dc:	81 e2       	ldi	r24, 0x21	; 33
 7de:	8a 95       	dec	r24
 7e0:	f1 f7       	brne	.-4      	; 0x7de <TM1637_setSegments+0x3a>
 7e2:	00 00       	nop
 7e4:	84 b3       	in	r24, 0x14	; 20
 7e6:	8f 7d       	andi	r24, 0xDF	; 223
 7e8:	84 bb       	out	0x14, r24	; 20
 7ea:	82 e4       	ldi	r24, 0x42	; 66
 7ec:	8a 95       	dec	r24
 7ee:	f1 f7       	brne	.-4      	; 0x7ec <TM1637_setSegments+0x48>
 7f0:	00 c0       	rjmp	.+0      	; 0x7f2 <TM1637_setSegments+0x4e>
 7f2:	46 95       	lsr	r20
 7f4:	9f 5f       	subi	r25, 0xFF	; 255
 7f6:	98 30       	cpi	r25, 0x08	; 8
 7f8:	08 f3       	brcs	.-62     	; 0x7bc <TM1637_setSegments+0x18>
 7fa:	84 b3       	in	r24, 0x14	; 20
 7fc:	80 62       	ori	r24, 0x20	; 32
 7fe:	84 bb       	out	0x14, r24	; 20
 800:	84 b3       	in	r24, 0x14	; 20
 802:	8f 7e       	andi	r24, 0xEF	; 239
 804:	84 bb       	out	0x14, r24	; 20
 806:	82 e4       	ldi	r24, 0x42	; 66
 808:	8a 95       	dec	r24
 80a:	f1 f7       	brne	.-4      	; 0x808 <TM1637_setSegments+0x64>
 80c:	00 c0       	rjmp	.+0      	; 0x80e <TM1637_setSegments+0x6a>
 80e:	84 b3       	in	r24, 0x14	; 20
 810:	8f 7d       	andi	r24, 0xDF	; 223
 812:	84 bb       	out	0x14, r24	; 20
 814:	81 e2       	ldi	r24, 0x21	; 33
 816:	8a 95       	dec	r24
 818:	f1 f7       	brne	.-4      	; 0x816 <TM1637_setSegments+0x72>
 81a:	00 00       	nop
 81c:	9c 99       	sbic	0x13, 4	; 19
 81e:	03 c0       	rjmp	.+6      	; 0x826 <TM1637_setSegments+0x82>
 820:	84 b3       	in	r24, 0x14	; 20
 822:	80 61       	ori	r24, 0x10	; 16
 824:	84 bb       	out	0x14, r24	; 20
 826:	81 e2       	ldi	r24, 0x21	; 33
 828:	8a 95       	dec	r24
 82a:	f1 f7       	brne	.-4      	; 0x828 <TM1637_setSegments+0x84>
 82c:	00 00       	nop
 82e:	40 e0       	ldi	r20, 0x00	; 0
 830:	40 c0       	rjmp	.+128    	; 0x8b2 <TM1637_setSegments+0x10e>
 832:	df 01       	movw	r26, r30
 834:	a4 0f       	add	r26, r20
 836:	b1 1d       	adc	r27, r1
 838:	3c 91       	ld	r19, X
 83a:	20 e0       	ldi	r18, 0x00	; 0
 83c:	1d c0       	rjmp	.+58     	; 0x878 <TM1637_setSegments+0xd4>
 83e:	94 b3       	in	r25, 0x14	; 20
 840:	90 62       	ori	r25, 0x20	; 32
 842:	94 bb       	out	0x14, r25	; 20
 844:	81 e2       	ldi	r24, 0x21	; 33
 846:	8a 95       	dec	r24
 848:	f1 f7       	brne	.-4      	; 0x846 <TM1637_setSegments+0xa2>
 84a:	00 00       	nop
 84c:	30 ff       	sbrs	r19, 0
 84e:	04 c0       	rjmp	.+8      	; 0x858 <TM1637_setSegments+0xb4>
 850:	94 b3       	in	r25, 0x14	; 20
 852:	9f 7e       	andi	r25, 0xEF	; 239
 854:	94 bb       	out	0x14, r25	; 20
 856:	03 c0       	rjmp	.+6      	; 0x85e <TM1637_setSegments+0xba>
 858:	94 b3       	in	r25, 0x14	; 20
 85a:	90 61       	ori	r25, 0x10	; 16
 85c:	94 bb       	out	0x14, r25	; 20
 85e:	81 e2       	ldi	r24, 0x21	; 33
 860:	8a 95       	dec	r24
 862:	f1 f7       	brne	.-4      	; 0x860 <TM1637_setSegments+0xbc>
 864:	00 00       	nop
 866:	94 b3       	in	r25, 0x14	; 20
 868:	9f 7d       	andi	r25, 0xDF	; 223
 86a:	94 bb       	out	0x14, r25	; 20
 86c:	82 e4       	ldi	r24, 0x42	; 66
 86e:	8a 95       	dec	r24
 870:	f1 f7       	brne	.-4      	; 0x86e <TM1637_setSegments+0xca>
 872:	00 c0       	rjmp	.+0      	; 0x874 <TM1637_setSegments+0xd0>
 874:	36 95       	lsr	r19
 876:	2f 5f       	subi	r18, 0xFF	; 255
 878:	28 30       	cpi	r18, 0x08	; 8
 87a:	08 f3       	brcs	.-62     	; 0x83e <TM1637_setSegments+0x9a>
 87c:	84 b3       	in	r24, 0x14	; 20
 87e:	80 62       	ori	r24, 0x20	; 32
 880:	84 bb       	out	0x14, r24	; 20
 882:	84 b3       	in	r24, 0x14	; 20
 884:	8f 7e       	andi	r24, 0xEF	; 239
 886:	84 bb       	out	0x14, r24	; 20
 888:	82 e4       	ldi	r24, 0x42	; 66
 88a:	8a 95       	dec	r24
 88c:	f1 f7       	brne	.-4      	; 0x88a <TM1637_setSegments+0xe6>
 88e:	00 c0       	rjmp	.+0      	; 0x890 <TM1637_setSegments+0xec>
 890:	94 b3       	in	r25, 0x14	; 20
 892:	9f 7d       	andi	r25, 0xDF	; 223
 894:	94 bb       	out	0x14, r25	; 20
 896:	81 e2       	ldi	r24, 0x21	; 33
 898:	8a 95       	dec	r24
 89a:	f1 f7       	brne	.-4      	; 0x898 <TM1637_setSegments+0xf4>
 89c:	00 00       	nop
 89e:	9c 99       	sbic	0x13, 4	; 19
 8a0:	03 c0       	rjmp	.+6      	; 0x8a8 <TM1637_setSegments+0x104>
 8a2:	84 b3       	in	r24, 0x14	; 20
 8a4:	80 61       	ori	r24, 0x10	; 16
 8a6:	84 bb       	out	0x14, r24	; 20
 8a8:	81 e2       	ldi	r24, 0x21	; 33
 8aa:	8a 95       	dec	r24
 8ac:	f1 f7       	brne	.-4      	; 0x8aa <TM1637_setSegments+0x106>
 8ae:	00 00       	nop
 8b0:	4f 5f       	subi	r20, 0xFF	; 255
 8b2:	46 17       	cp	r20, r22
 8b4:	08 f4       	brcc	.+2      	; 0x8b8 <TM1637_setSegments+0x114>
 8b6:	bd cf       	rjmp	.-134    	; 0x832 <TM1637_setSegments+0x8e>
 8b8:	84 b3       	in	r24, 0x14	; 20
 8ba:	80 62       	ori	r24, 0x20	; 32
 8bc:	84 bb       	out	0x14, r24	; 20
 8be:	81 e2       	ldi	r24, 0x21	; 33
 8c0:	8a 95       	dec	r24
 8c2:	f1 f7       	brne	.-4      	; 0x8c0 <TM1637_setSegments+0x11c>
 8c4:	00 00       	nop
 8c6:	84 b3       	in	r24, 0x14	; 20
 8c8:	80 61       	ori	r24, 0x10	; 16
 8ca:	84 bb       	out	0x14, r24	; 20
 8cc:	81 e2       	ldi	r24, 0x21	; 33
 8ce:	8a 95       	dec	r24
 8d0:	f1 f7       	brne	.-4      	; 0x8ce <TM1637_setSegments+0x12a>
 8d2:	00 00       	nop
 8d4:	84 b3       	in	r24, 0x14	; 20
 8d6:	8f 7d       	andi	r24, 0xDF	; 223
 8d8:	84 bb       	out	0x14, r24	; 20
 8da:	82 e4       	ldi	r24, 0x42	; 66
 8dc:	8a 95       	dec	r24
 8de:	f1 f7       	brne	.-4      	; 0x8dc <TM1637_setSegments+0x138>
 8e0:	00 c0       	rjmp	.+0      	; 0x8e2 <TM1637_setSegments+0x13e>
 8e2:	84 b3       	in	r24, 0x14	; 20
 8e4:	8f 7e       	andi	r24, 0xEF	; 239
 8e6:	84 bb       	out	0x14, r24	; 20
 8e8:	82 e4       	ldi	r24, 0x42	; 66
 8ea:	8a 95       	dec	r24
 8ec:	f1 f7       	brne	.-4      	; 0x8ea <TM1637_setSegments+0x146>
 8ee:	00 c0       	rjmp	.+0      	; 0x8f0 <TM1637_setSegments+0x14c>
 8f0:	08 95       	ret

000008f2 <TM1637_clear>:
 8f2:	84 b3       	in	r24, 0x14	; 20
 8f4:	80 61       	ori	r24, 0x10	; 16
 8f6:	84 bb       	out	0x14, r24	; 20
 8f8:	82 e4       	ldi	r24, 0x42	; 66
 8fa:	8a 95       	dec	r24
 8fc:	f1 f7       	brne	.-4      	; 0x8fa <TM1637_clear+0x8>
 8fe:	00 c0       	rjmp	.+0      	; 0x900 <TM1637_clear+0xe>
 900:	90 e0       	ldi	r25, 0x00	; 0
 902:	20 ec       	ldi	r18, 0xC0	; 192
 904:	1d c0       	rjmp	.+58     	; 0x940 <TM1637_clear+0x4e>
 906:	84 b3       	in	r24, 0x14	; 20
 908:	80 62       	ori	r24, 0x20	; 32
 90a:	84 bb       	out	0x14, r24	; 20
 90c:	81 e2       	ldi	r24, 0x21	; 33
 90e:	8a 95       	dec	r24
 910:	f1 f7       	brne	.-4      	; 0x90e <TM1637_clear+0x1c>
 912:	00 00       	nop
 914:	20 ff       	sbrs	r18, 0
 916:	04 c0       	rjmp	.+8      	; 0x920 <TM1637_clear+0x2e>
 918:	84 b3       	in	r24, 0x14	; 20
 91a:	8f 7e       	andi	r24, 0xEF	; 239
 91c:	84 bb       	out	0x14, r24	; 20
 91e:	03 c0       	rjmp	.+6      	; 0x926 <TM1637_clear+0x34>
 920:	84 b3       	in	r24, 0x14	; 20
 922:	80 61       	ori	r24, 0x10	; 16
 924:	84 bb       	out	0x14, r24	; 20
 926:	81 e2       	ldi	r24, 0x21	; 33
 928:	8a 95       	dec	r24
 92a:	f1 f7       	brne	.-4      	; 0x928 <TM1637_clear+0x36>
 92c:	00 00       	nop
 92e:	84 b3       	in	r24, 0x14	; 20
 930:	8f 7d       	andi	r24, 0xDF	; 223
 932:	84 bb       	out	0x14, r24	; 20
 934:	82 e4       	ldi	r24, 0x42	; 66
 936:	8a 95       	dec	r24
 938:	f1 f7       	brne	.-4      	; 0x936 <TM1637_clear+0x44>
 93a:	00 c0       	rjmp	.+0      	; 0x93c <TM1637_clear+0x4a>
 93c:	26 95       	lsr	r18
 93e:	9f 5f       	subi	r25, 0xFF	; 255
 940:	98 30       	cpi	r25, 0x08	; 8
 942:	08 f3       	brcs	.-62     	; 0x906 <TM1637_clear+0x14>
 944:	84 b3       	in	r24, 0x14	; 20
 946:	80 62       	ori	r24, 0x20	; 32
 948:	84 bb       	out	0x14, r24	; 20
 94a:	84 b3       	in	r24, 0x14	; 20
 94c:	8f 7e       	andi	r24, 0xEF	; 239
 94e:	84 bb       	out	0x14, r24	; 20
 950:	82 e4       	ldi	r24, 0x42	; 66
 952:	8a 95       	dec	r24
 954:	f1 f7       	brne	.-4      	; 0x952 <TM1637_clear+0x60>
 956:	00 c0       	rjmp	.+0      	; 0x958 <TM1637_clear+0x66>
 958:	84 b3       	in	r24, 0x14	; 20
 95a:	8f 7d       	andi	r24, 0xDF	; 223
 95c:	84 bb       	out	0x14, r24	; 20
 95e:	81 e2       	ldi	r24, 0x21	; 33
 960:	8a 95       	dec	r24
 962:	f1 f7       	brne	.-4      	; 0x960 <TM1637_clear+0x6e>
 964:	00 00       	nop
 966:	9c 99       	sbic	0x13, 4	; 19
 968:	03 c0       	rjmp	.+6      	; 0x970 <TM1637_clear+0x7e>
 96a:	84 b3       	in	r24, 0x14	; 20
 96c:	80 61       	ori	r24, 0x10	; 16
 96e:	84 bb       	out	0x14, r24	; 20
 970:	81 e2       	ldi	r24, 0x21	; 33
 972:	8a 95       	dec	r24
 974:	f1 f7       	brne	.-4      	; 0x972 <TM1637_clear+0x80>
 976:	00 00       	nop
 978:	20 e0       	ldi	r18, 0x00	; 0
 97a:	35 c0       	rjmp	.+106    	; 0x9e6 <TM1637_clear+0xf4>
 97c:	84 b3       	in	r24, 0x14	; 20
 97e:	80 62       	ori	r24, 0x20	; 32
 980:	84 bb       	out	0x14, r24	; 20
 982:	81 e2       	ldi	r24, 0x21	; 33
 984:	8a 95       	dec	r24
 986:	f1 f7       	brne	.-4      	; 0x984 <TM1637_clear+0x92>
 988:	00 00       	nop
 98a:	84 b3       	in	r24, 0x14	; 20
 98c:	80 61       	ori	r24, 0x10	; 16
 98e:	84 bb       	out	0x14, r24	; 20
 990:	81 e2       	ldi	r24, 0x21	; 33
 992:	8a 95       	dec	r24
 994:	f1 f7       	brne	.-4      	; 0x992 <TM1637_clear+0xa0>
 996:	00 00       	nop
 998:	84 b3       	in	r24, 0x14	; 20
 99a:	8f 7d       	andi	r24, 0xDF	; 223
 99c:	84 bb       	out	0x14, r24	; 20
 99e:	82 e4       	ldi	r24, 0x42	; 66
 9a0:	8a 95       	dec	r24
 9a2:	f1 f7       	brne	.-4      	; 0x9a0 <TM1637_clear+0xae>
 9a4:	00 c0       	rjmp	.+0      	; 0x9a6 <TM1637_clear+0xb4>
 9a6:	9f 5f       	subi	r25, 0xFF	; 255
 9a8:	01 c0       	rjmp	.+2      	; 0x9ac <TM1637_clear+0xba>
 9aa:	90 e0       	ldi	r25, 0x00	; 0
 9ac:	98 30       	cpi	r25, 0x08	; 8
 9ae:	30 f3       	brcs	.-52     	; 0x97c <TM1637_clear+0x8a>
 9b0:	84 b3       	in	r24, 0x14	; 20
 9b2:	80 62       	ori	r24, 0x20	; 32
 9b4:	84 bb       	out	0x14, r24	; 20
 9b6:	84 b3       	in	r24, 0x14	; 20
 9b8:	8f 7e       	andi	r24, 0xEF	; 239
 9ba:	84 bb       	out	0x14, r24	; 20
 9bc:	82 e4       	ldi	r24, 0x42	; 66
 9be:	8a 95       	dec	r24
 9c0:	f1 f7       	brne	.-4      	; 0x9be <TM1637_clear+0xcc>
 9c2:	00 c0       	rjmp	.+0      	; 0x9c4 <TM1637_clear+0xd2>
 9c4:	84 b3       	in	r24, 0x14	; 20
 9c6:	8f 7d       	andi	r24, 0xDF	; 223
 9c8:	84 bb       	out	0x14, r24	; 20
 9ca:	81 e2       	ldi	r24, 0x21	; 33
 9cc:	8a 95       	dec	r24
 9ce:	f1 f7       	brne	.-4      	; 0x9cc <TM1637_clear+0xda>
 9d0:	00 00       	nop
 9d2:	9c 99       	sbic	0x13, 4	; 19
 9d4:	03 c0       	rjmp	.+6      	; 0x9dc <TM1637_clear+0xea>
 9d6:	84 b3       	in	r24, 0x14	; 20
 9d8:	80 61       	ori	r24, 0x10	; 16
 9da:	84 bb       	out	0x14, r24	; 20
 9dc:	81 e2       	ldi	r24, 0x21	; 33
 9de:	8a 95       	dec	r24
 9e0:	f1 f7       	brne	.-4      	; 0x9de <TM1637_clear+0xec>
 9e2:	00 00       	nop
 9e4:	2f 5f       	subi	r18, 0xFF	; 255
 9e6:	24 30       	cpi	r18, 0x04	; 4
 9e8:	00 f3       	brcs	.-64     	; 0x9aa <TM1637_clear+0xb8>
 9ea:	84 b3       	in	r24, 0x14	; 20
 9ec:	80 62       	ori	r24, 0x20	; 32
 9ee:	84 bb       	out	0x14, r24	; 20
 9f0:	81 e2       	ldi	r24, 0x21	; 33
 9f2:	8a 95       	dec	r24
 9f4:	f1 f7       	brne	.-4      	; 0x9f2 <TM1637_clear+0x100>
 9f6:	00 00       	nop
 9f8:	84 b3       	in	r24, 0x14	; 20
 9fa:	80 61       	ori	r24, 0x10	; 16
 9fc:	84 bb       	out	0x14, r24	; 20
 9fe:	81 e2       	ldi	r24, 0x21	; 33
 a00:	8a 95       	dec	r24
 a02:	f1 f7       	brne	.-4      	; 0xa00 <TM1637_clear+0x10e>
 a04:	00 00       	nop
 a06:	84 b3       	in	r24, 0x14	; 20
 a08:	8f 7d       	andi	r24, 0xDF	; 223
 a0a:	84 bb       	out	0x14, r24	; 20
 a0c:	82 e4       	ldi	r24, 0x42	; 66
 a0e:	8a 95       	dec	r24
 a10:	f1 f7       	brne	.-4      	; 0xa0e <TM1637_clear+0x11c>
 a12:	00 c0       	rjmp	.+0      	; 0xa14 <TM1637_clear+0x122>
 a14:	84 b3       	in	r24, 0x14	; 20
 a16:	8f 7e       	andi	r24, 0xEF	; 239
 a18:	84 bb       	out	0x14, r24	; 20
 a1a:	82 e4       	ldi	r24, 0x42	; 66
 a1c:	8a 95       	dec	r24
 a1e:	f1 f7       	brne	.-4      	; 0xa1c <TM1637_clear+0x12a>
 a20:	00 c0       	rjmp	.+0      	; 0xa22 <TM1637_clear+0x130>
 a22:	08 95       	ret

00000a24 <_exit>:
 a24:	f8 94       	cli

00000a26 <__stop_program>:
 a26:	ff cf       	rjmp	.-2      	; 0xa26 <__stop_program>
